ARM GAS  /var/folders/ph/03bwgzvd4m303v9bqlrmh_yh0000gn/T//ccqgl99K.s 			page 1


   1              		.cpu cortex-m7
   2              		.eabi_attribute 27, 1	@ Tag_ABI_HardFP_use
   3              		.eabi_attribute 28, 1	@ Tag_ABI_VFP_args
   4              		.eabi_attribute 20, 1	@ Tag_ABI_FP_denormal
   5              		.eabi_attribute 21, 1	@ Tag_ABI_FP_exceptions
   6              		.eabi_attribute 23, 3	@ Tag_ABI_FP_number_model
   7              		.eabi_attribute 24, 1	@ Tag_ABI_align8_needed
   8              		.eabi_attribute 25, 1	@ Tag_ABI_align8_preserved
   9              		.eabi_attribute 26, 1	@ Tag_ABI_enum_size
  10              		.eabi_attribute 30, 2	@ Tag_ABI_optimization_goals
  11              		.eabi_attribute 34, 1	@ Tag_CPU_unaligned_access
  12              		.eabi_attribute 18, 4	@ Tag_ABI_PCS_wchar_t
  13              		.file	"main.c"
  14              	@ GNU C17 (GNU Tools for Arm Embedded Processors 9-2019-q4-major) version 9.2.1 20191025 (release) 
  15              	@	compiled by GNU C version 4.2.1 Compatible Apple LLVM 9.0.0 (clang-900.0.39.2), GMP version 6.1.0
  16              	
  17              	@ GGC heuristics: --param ggc-min-expand=100 --param ggc-min-heapsize=131072
  18              	@ options passed:  -I . -I . -I /Users/mjw/Developer/PlaydateSDK/C_API
  19              	@ -imultilib thumb/v7e-m+fp/hard
  20              	@ -iprefix /usr/local/playdate/gcc-arm-none-eabi-9-2019-q4-major/bin/../lib/gcc/arm-none-eabi/9.2.1
  21              	@ -isysroot /usr/local/playdate/gcc-arm-none-eabi-9-2019-q4-major/bin/../arm-none-eabi
  22              	@ -MD build/src/main.d -MF build/dep/main.o.d -MP -MQ build/src/main.o
  23              	@ -D__USES_INITFINI__ -D __FPU_USED=1 -D TARGET_PLAYDATE=1
  24              	@ -D TARGET_EXTENSION=1 src/main.c -mthumb -mcpu=cortex-m7 -mfloat-abi=hard
  25              	@ -mfpu=fpv5-sp-d16 -mword-relocations -march=armv7e-m+fpv5
  26              	@ -auxbase-strip build/src/main.o -g3 -gdwarf-2 -O2 -Wall -Wno-unused
  27              	@ -Wstrict-prototypes -Wno-unknown-pragmas -Wdouble-promotion
  28              	@ -falign-functions=16 -fomit-frame-pointer -fverbose-asm -fno-common
  29              	@ -ffunction-sections -fdata-sections
  30              	@ options enabled:  -faggressive-loop-optimizations -falign-functions
  31              	@ -falign-jumps -falign-labels -falign-loops -fassume-phsa -fauto-inc-dec
  32              	@ -fbranch-count-reg -fcaller-saves -fcombine-stack-adjustments
  33              	@ -fcompare-elim -fcprop-registers -fcrossjumping -fcse-follow-jumps
  34              	@ -fdata-sections -fdefer-pop -fdelete-null-pointer-checks -fdevirtualize
  35              	@ -fdevirtualize-speculatively -fdwarf2-cfi-asm -fearly-inlining
  36              	@ -feliminate-unused-debug-types -fexpensive-optimizations
  37              	@ -fforward-propagate -ffp-int-builtin-inexact -ffunction-cse
  38              	@ -ffunction-sections -fgcse -fgcse-lm -fgnu-runtime -fgnu-unique
  39              	@ -fguess-branch-probability -fhoist-adjacent-loads -fident -fif-conversion
  40              	@ -fif-conversion2 -findirect-inlining -finline -finline-atomics
  41              	@ -finline-functions-called-once -finline-small-functions -fipa-bit-cp
  42              	@ -fipa-cp -fipa-icf -fipa-icf-functions -fipa-icf-variables -fipa-profile
  43              	@ -fipa-pure-const -fipa-ra -fipa-reference -fipa-reference-addressable
  44              	@ -fipa-sra -fipa-stack-alignment -fipa-vrp -fira-hoist-pressure
  45              	@ -fira-share-save-slots -fira-share-spill-slots
  46              	@ -fisolate-erroneous-paths-dereference -fivopts -fkeep-static-consts
  47              	@ -fleading-underscore -flifetime-dse -flra-remat -flto-odr-type-merging
  48              	@ -fmath-errno -fmerge-constants -fmerge-debug-strings
  49              	@ -fmove-loop-invariants -fomit-frame-pointer -foptimize-sibling-calls
  50              	@ -foptimize-strlen -fpartial-inlining -fpeephole -fpeephole2 -fplt
  51              	@ -fprefetch-loop-arrays -freg-struct-return -freorder-blocks
  52              	@ -freorder-functions -frerun-cse-after-loop
  53              	@ -fsched-critical-path-heuristic -fsched-dep-count-heuristic
  54              	@ -fsched-group-heuristic -fsched-interblock -fsched-last-insn-heuristic
  55              	@ -fsched-pressure -fsched-rank-heuristic -fsched-spec
  56              	@ -fsched-spec-insn-heuristic -fsched-stalled-insns-dep -fschedule-insns
  57              	@ -fschedule-insns2 -fsection-anchors -fsemantic-interposition
ARM GAS  /var/folders/ph/03bwgzvd4m303v9bqlrmh_yh0000gn/T//ccqgl99K.s 			page 2


  58              	@ -fshow-column -fshrink-wrap -fshrink-wrap-separate -fsigned-zeros
  59              	@ -fsplit-ivs-in-unroller -fsplit-wide-types -fssa-backprop -fssa-phiopt
  60              	@ -fstdarg-opt -fstore-merging -fstrict-aliasing
  61              	@ -fstrict-volatile-bitfields -fsync-libcalls -fthread-jumps
  62              	@ -ftoplevel-reorder -ftrapping-math -ftree-bit-ccp -ftree-builtin-call-dce
  63              	@ -ftree-ccp -ftree-ch -ftree-coalesce-vars -ftree-copy-prop -ftree-cselim
  64              	@ -ftree-dce -ftree-dominator-opts -ftree-dse -ftree-forwprop -ftree-fre
  65              	@ -ftree-loop-if-convert -ftree-loop-im -ftree-loop-ivcanon
  66              	@ -ftree-loop-optimize -ftree-parallelize-loops= -ftree-phiprop -ftree-pre
  67              	@ -ftree-pta -ftree-reassoc -ftree-scev-cprop -ftree-sink -ftree-slsr
  68              	@ -ftree-sra -ftree-switch-conversion -ftree-tail-merge -ftree-ter
  69              	@ -ftree-vrp -funit-at-a-time -fvar-tracking -fvar-tracking-assignments
  70              	@ -fverbose-asm -fzero-initialized-in-bss -masm-syntax-unified -mbe32
  71              	@ -mlittle-endian -mpic-data-is-text-relative -msched-prolog -mthumb
  72              	@ -munaligned-access -mvectorize-with-neon-quad -mword-relocations
  73              	
  74              		.text
  75              	.Ltext0:
  76              		.cfi_sections	.debug_frame
  77              		.section	.rodata.init.str1.4,"aMS",%progbits,1
  78              		.align	2
  79              	.LC0:
  80 0000 77616C6C 		.ascii	"walls\000"
  80      7300
  81 0006 0000     		.align	2
  82              	.LC1:
  83 0008 436F756C 		.ascii	"Could not load wall bitmap table: %s\000"
  83      64206E6F 
  83      74206C6F 
  83      61642077 
  83      616C6C20 
  84 002d 000000   		.align	2
  85              	.LC2:
  86 0030 476F7420 		.ascii	"Got wall bitmap, ready to roll.\000"
  86      77616C6C 
  86      20626974 
  86      6D61702C 
  86      20726561 
  87              		.align	2
  88              	.LC3:
  89 0050 706C6179 		.ascii	"player\000"
  89      657200
  90 0057 00       		.align	2
  91              	.LC4:
  92 0058 436F756C 		.ascii	"Could not load player bitmap table: %s\000"
  92      64206E6F 
  92      74206C6F 
  92      61642070 
  92      6C617965 
  93 007f 00       		.align	2
  94              	.LC5:
  95 0080 476F7420 		.ascii	"Got player bitmap, ready to roll.\000"
  95      706C6179 
  95      65722062 
  95      69746D61 
  95      702C2072 
  96              		.section	.text.init,"ax",%progbits
ARM GAS  /var/folders/ph/03bwgzvd4m303v9bqlrmh_yh0000gn/T//ccqgl99K.s 			page 3


  97              		.align	1
  98              		.p2align 4,,15
  99              		.global	init
 100              		.arch armv7e-m
 101              		.syntax unified
 102              		.thumb
 103              		.thumb_func
 104              		.fpu fpv5-sp-d16
 105              		.type	init, %function
 106              	init:
 107              	.LVL0:
 108              	.LFB16:
 109              		.file 1 "src/main.c"
   1:src/main.c    **** #include <stdio.h>
   2:src/main.c    **** #include <stdlib.h>
   3:src/main.c    **** #include <time.h>
   4:src/main.c    **** 
   5:src/main.c    **** #include "pd_api.h"
   6:src/main.c    **** 
   7:src/main.c    **** static int update(void* userdata);
   8:src/main.c    **** void ProcessInput(PlaydateAPI* pd);
   9:src/main.c    **** void drawMaze(PlaydateAPI* pd);
  10:src/main.c    **** LCDBitmap* getFrame(PlaydateAPI *pd, int x, int y);
  11:src/main.c    **** void init(PlaydateAPI *pd);
  12:src/main.c    **** int build_maze(PlaydateAPI *pd);
  13:src/main.c    **** void drawPlayer(PlaydateAPI* pd);
  14:src/main.c    **** 
  15:src/main.c    **** const int MAZE_X = 12;
  16:src/main.c    **** const int MAZE_Y = 7;
  17:src/main.c    **** const int MAZE_LINEAR = MAZE_X * MAZE_Y;
  18:src/main.c    **** const int X_OFFSET = 7;
  19:src/main.c    **** const int Y_OFFSET = 8;
  20:src/main.c    **** 
  21:src/main.c    **** struct {
  22:src/main.c    ****   int SCREEN_WIDTH;
  23:src/main.c    ****   int SCREEN_HEIGHT;
  24:src/main.c    ****   float frame;
  25:src/main.c    ****   LCDBitmapTable* bitmapTable;
  26:src/main.c    **** 	LCDBitmapTable* playerTable;
  27:src/main.c    ****   const char* err;
  28:src/main.c    **** 	int maze[84];
  29:src/main.c    **** 	int player_x;
  30:src/main.c    **** 	int player_y;	
  31:src/main.c    **** 	double playerFrame;
  32:src/main.c    **** } GAMEDATA;
  33:src/main.c    **** 
  34:src/main.c    **** 
  35:src/main.c    **** const char* fontpath = "/System/Fonts/Asheville-Sans-14-Bold.pft";
  36:src/main.c    **** LCDFont* font = NULL;
  37:src/main.c    **** 
  38:src/main.c    **** #ifdef _WINDLL
  39:src/main.c    **** __declspec(dllexport)
  40:src/main.c    **** #endif
  41:src/main.c    **** 
  42:src/main.c    **** int eventHandler(PlaydateAPI* pd, PDSystemEvent event, uint32_t arg)
  43:src/main.c    **** {
  44:src/main.c    **** 	(void)arg; // arg is currently only used for event = kEventKeyPressed
ARM GAS  /var/folders/ph/03bwgzvd4m303v9bqlrmh_yh0000gn/T//ccqgl99K.s 			page 4


  45:src/main.c    **** 
  46:src/main.c    **** 	if ( event == kEventInit )
  47:src/main.c    **** 	{
  48:src/main.c    **** 		const char* err;
  49:src/main.c    **** 		font = pd->graphics->loadFont(fontpath, &err);
  50:src/main.c    **** 		
  51:src/main.c    **** 		if ( font == NULL )
  52:src/main.c    **** 			pd->system->error("%s:%i Couldn't load font %s: %s", __FILE__, __LINE__, fontpath, err);
  53:src/main.c    **** 
  54:src/main.c    **** 		init(pd);
  55:src/main.c    **** 
  56:src/main.c    **** 		// Note: If you set an update callback in the kEventInit handler, the system assumes the game is 
  57:src/main.c    **** 		pd->system->setUpdateCallback(update, pd);
  58:src/main.c    **** 	}
  59:src/main.c    **** 	
  60:src/main.c    **** 	return 0;
  61:src/main.c    **** }
  62:src/main.c    **** 
  63:src/main.c    **** void init(PlaydateAPI *pd)
  64:src/main.c    **** {  
 110              		.loc 1 64 1 view -0
 111              		.cfi_startproc
 112              		@ args = 0, pretend = 0, frame = 0
 113              		@ frame_needed = 0, uses_anonymous_args = 0
  65:src/main.c    ****   const char* wall_table = "walls"; // "robot-table-8-8.png";
 114              		.loc 1 65 3 view .LVU1
  66:src/main.c    ****   GAMEDATA.bitmapTable = pd->graphics->loadBitmapTable( wall_table, &GAMEDATA.err );
 115              		.loc 1 66 3 view .LVU2
 116              	@ src/main.c:64: {  
  64:src/main.c    ****   const char* wall_table = "walls"; // "robot-table-8-8.png";
 117              		.loc 1 64 1 is_stmt 0 view .LVU3
 118 0000 F8B5     		push	{r3, r4, r5, r6, r7, lr}	@
 119              	.LCFI0:
 120              		.cfi_def_cfa_offset 24
 121              		.cfi_offset 3, -24
 122              		.cfi_offset 4, -20
 123              		.cfi_offset 5, -16
 124              		.cfi_offset 6, -12
 125              		.cfi_offset 7, -8
 126              		.cfi_offset 14, -4
 127              	@ src/main.c:64: {  
  64:src/main.c    ****   const char* wall_table = "walls"; // "robot-table-8-8.png";
 128              		.loc 1 64 1 view .LVU4
 129 0002 0446     		mov	r4, r0	@ tmp179, pd
 130              	@ src/main.c:66:   GAMEDATA.bitmapTable = pd->graphics->loadBitmapTable( wall_table, &GAMEDATA.err 
 131              		.loc 1 66 26 view .LVU5
 132 0004 1D4F     		ldr	r7, .L12	@ tmp178,
 133 0006 1E48     		ldr	r0, .L12+4	@,
 134              	.LVL1:
 135              	@ src/main.c:66:   GAMEDATA.bitmapTable = pd->graphics->loadBitmapTable( wall_table, &GAMEDATA.err 
 136              		.loc 1 66 38 view .LVU6
 137 0008 A368     		ldr	r3, [r4, #8]	@ pd_20(D)->graphics, pd_20(D)->graphics
 138              	@ src/main.c:66:   GAMEDATA.bitmapTable = pd->graphics->loadBitmapTable( wall_table, &GAMEDATA.err 
 139              		.loc 1 66 26 view .LVU7
 140 000a 07F11401 		add	r1, r7, #20	@, tmp178,
 141 000e D3F88430 		ldr	r3, [r3, #132]	@ _1->loadBitmapTable, _1->loadBitmapTable
 142 0012 9847     		blx	r3		@ _1->loadBitmapTable
ARM GAS  /var/folders/ph/03bwgzvd4m303v9bqlrmh_yh0000gn/T//ccqgl99K.s 			page 5


 143              	.LVL2:
 144              	@ src/main.c:70:     pd->system->error( "Could not load wall bitmap table: %s", GAMEDATA.err );
  67:src/main.c    **** 
  68:src/main.c    **** 	if (GAMEDATA.bitmapTable == NULL)
  69:src/main.c    **** 	{
  70:src/main.c    ****     pd->system->error( "Could not load wall bitmap table: %s", GAMEDATA.err );
 145              		.loc 1 70 15 view .LVU8
 146 0014 2368     		ldr	r3, [r4]	@ pd_20(D)->system, pd_20(D)->system
 147              	@ src/main.c:66:   GAMEDATA.bitmapTable = pd->graphics->loadBitmapTable( wall_table, &GAMEDATA.err 
  66:src/main.c    **** 
 148              		.loc 1 66 24 view .LVU9
 149 0016 F860     		str	r0, [r7, #12]	@ _3, GAMEDATA.bitmapTable
  68:src/main.c    **** 	{
 150              		.loc 1 68 2 is_stmt 1 view .LVU10
 151              	@ src/main.c:68: 	if (GAMEDATA.bitmapTable == NULL)
  68:src/main.c    **** 	{
 152              		.loc 1 68 5 is_stmt 0 view .LVU11
 153 0018 30B3     		cbz	r0, .L10	@ _3,
  71:src/main.c    **** 	}
  72:src/main.c    **** 	else pd->system->logToConsole( "Got wall bitmap, ready to roll.");
 154              		.loc 1 72 7 is_stmt 1 view .LVU12
 155 001a 1A48     		ldr	r0, .L12+8	@,
 156 001c 9B68     		ldr	r3, [r3, #8]	@ _7->logToConsole, _7->logToConsole
 157 001e 9847     		blx	r3		@ _7->logToConsole
 158              	.LVL3:
 159              	.L3:
  73:src/main.c    **** 
  74:src/main.c    ****   const char* player_table = "player"; // "robot-table-8-8.png";
 160              		.loc 1 74 3 view .LVU13
  75:src/main.c    ****   GAMEDATA.playerTable = pd->graphics->loadBitmapTable( player_table, &GAMEDATA.err );
 161              		.loc 1 75 3 view .LVU14
 162              	@ src/main.c:75:   GAMEDATA.playerTable = pd->graphics->loadBitmapTable( player_table, &GAMEDATA.er
 163              		.loc 1 75 38 is_stmt 0 view .LVU15
 164 0020 A368     		ldr	r3, [r4, #8]	@ pd_20(D)->graphics, pd_20(D)->graphics
 165              	@ src/main.c:75:   GAMEDATA.playerTable = pd->graphics->loadBitmapTable( player_table, &GAMEDATA.er
 166              		.loc 1 75 26 view .LVU16
 167 0022 1949     		ldr	r1, .L12+12	@,
 168 0024 D3F88430 		ldr	r3, [r3, #132]	@ _9->loadBitmapTable, _9->loadBitmapTable
 169 0028 1848     		ldr	r0, .L12+16	@,
 170 002a 9847     		blx	r3		@ _9->loadBitmapTable
 171              	.LVL4:
 172              	@ src/main.c:79:     pd->system->error( "Could not load player bitmap table: %s", GAMEDATA.err );
  76:src/main.c    **** 
  77:src/main.c    **** 	if (GAMEDATA.playerTable == NULL)
  78:src/main.c    **** 	{
  79:src/main.c    ****     pd->system->error( "Could not load player bitmap table: %s", GAMEDATA.err );
 173              		.loc 1 79 15 view .LVU17
 174 002c 2368     		ldr	r3, [r4]	@ pd_20(D)->system, pd_20(D)->system
 175              	@ src/main.c:75:   GAMEDATA.playerTable = pd->graphics->loadBitmapTable( player_table, &GAMEDATA.er
  75:src/main.c    ****   GAMEDATA.playerTable = pd->graphics->loadBitmapTable( player_table, &GAMEDATA.err );
 176              		.loc 1 75 24 view .LVU18
 177 002e 3861     		str	r0, [r7, #16]	@ _11, GAMEDATA.playerTable
  77:src/main.c    **** 	{
 178              		.loc 1 77 2 is_stmt 1 view .LVU19
 179              	@ src/main.c:77: 	if (GAMEDATA.playerTable == NULL)
  77:src/main.c    **** 	{
 180              		.loc 1 77 5 is_stmt 0 view .LVU20
ARM GAS  /var/folders/ph/03bwgzvd4m303v9bqlrmh_yh0000gn/T//ccqgl99K.s 			page 6


 181 0030 F8B1     		cbz	r0, .L11	@ _11,
  80:src/main.c    **** 	}
  81:src/main.c    **** 	else pd->system->logToConsole( "Got player bitmap, ready to roll.");
 182              		.loc 1 81 7 is_stmt 1 view .LVU21
 183 0032 1748     		ldr	r0, .L12+20	@,
 184 0034 9B68     		ldr	r3, [r3, #8]	@ _15->logToConsole, _15->logToConsole
 185 0036 9847     		blx	r3		@ _15->logToConsole
 186              	.LVL5:
 187              	.L5:
  82:src/main.c    **** 
  83:src/main.c    **** 
  84:src/main.c    **** 	GAMEDATA.player_x = 0;
 188              		.loc 1 84 2 view .LVU22
 189 0038 134E     		ldr	r6, .L12+12	@ ivtmp.26,
 190              	@ src/main.c:84: 	GAMEDATA.player_x = 0;
 191              		.loc 1 84 20 is_stmt 0 view .LVU23
 192 003a 0023     		movs	r3, #0	@ tmp162,
 193              	.LBB8:
 194              	.LBB9:
 195              	@ src/main.c:169: 	  GAMEDATA.maze[i] = rand() % 14;
  85:src/main.c    **** 	GAMEDATA.player_y = 0;
  86:src/main.c    **** 
  87:src/main.c    **** 	build_maze(pd);
  88:src/main.c    **** 
  89:src/main.c    **** 	// srand(time(NULL));
  90:src/main.c    **** }
  91:src/main.c    **** 
  92:src/main.c    **** static int update(void* userdata)
  93:src/main.c    **** {
  94:src/main.c    **** 	PlaydateAPI* pd = userdata;
  95:src/main.c    **** 	pd->graphics->clear(kColorWhite);
  96:src/main.c    ****   ProcessInput(pd);
  97:src/main.c    ****   drawMaze(pd);
  98:src/main.c    **** 	drawPlayer(pd);
  99:src/main.c    **** 
 100:src/main.c    **** 	return 1;
 101:src/main.c    **** }
 102:src/main.c    **** 
 103:src/main.c    **** void ProcessInput(PlaydateAPI* pd)
 104:src/main.c    **** {
 105:src/main.c    ****   PDButtons current;
 106:src/main.c    ****   PDButtons pushed;
 107:src/main.c    ****   PDButtons released;
 108:src/main.c    ****   pd->system->getButtonState( &current, &pushed, &released );
 109:src/main.c    **** 
 110:src/main.c    ****   if ( pushed & kButtonLeft  ) { GAMEDATA.player_x--; }
 111:src/main.c    ****   else if ( pushed & kButtonRight ) { GAMEDATA.player_x++; }
 112:src/main.c    ****   else if ( pushed & kButtonUp    ) { GAMEDATA.player_y--; }
 113:src/main.c    ****   else if ( pushed & kButtonDown  ) { GAMEDATA.player_y++; }
 114:src/main.c    ****   else if ( pushed & kButtonA ) { build_maze(pd); }
 115:src/main.c    **** 
 116:src/main.c    **** 	if (GAMEDATA.player_x <= 0) GAMEDATA.player_x = 0;
 117:src/main.c    **** 	if (GAMEDATA.player_x >= MAZE_X-1) GAMEDATA.player_x = MAZE_X-1;
 118:src/main.c    **** 	if (GAMEDATA.player_y <= 0) GAMEDATA.player_y = 0;
 119:src/main.c    **** 	if (GAMEDATA.player_y >= MAZE_Y-1) GAMEDATA.player_y = MAZE_Y-1;
 120:src/main.c    **** }
 121:src/main.c    **** 
ARM GAS  /var/folders/ph/03bwgzvd4m303v9bqlrmh_yh0000gn/T//ccqgl99K.s 			page 7


 122:src/main.c    **** void drawPlayer(PlaydateAPI* pd)
 123:src/main.c    **** {
 124:src/main.c    ****   GAMEDATA.playerFrame += 0.2;
 125:src/main.c    **** 
 126:src/main.c    **** 	if (GAMEDATA.playerFrame > 4) GAMEDATA.playerFrame = 0;
 127:src/main.c    **** 
 128:src/main.c    **** 	LCDBitmap *p = pd->graphics->getTableBitmap( GAMEDATA.playerTable, (int) GAMEDATA.playerFrame);
 129:src/main.c    ****   pd->graphics->drawScaledBitmap( p, X_OFFSET+(GAMEDATA.player_x*32), Y_OFFSET+(GAMEDATA.player_y*3
 130:src/main.c    **** }
 131:src/main.c    **** 
 132:src/main.c    **** void drawMaze(PlaydateAPI* pd)
 133:src/main.c    **** {
 134:src/main.c    **** 	//Loop over the grid like it's 1992...
 135:src/main.c    **** 	int x = 0;
 136:src/main.c    **** 	int y = 0;
 137:src/main.c    **** 
 138:src/main.c    **** 	// Until we can create a maze, just loop through different aspects.
 139:src/main.c    ****   GAMEDATA.frame = 0;
 140:src/main.c    **** 
 141:src/main.c    **** 	for (x=0;x<MAZE_X;x++)
 142:src/main.c    **** 	{
 143:src/main.c    **** 		for (y=0;y<MAZE_Y;y++)
 144:src/main.c    **** 		{
 145:src/main.c    **** 			LCDBitmap* frame = getFrame(pd, x, y);
 146:src/main.c    ****       pd->graphics->drawScaledBitmap( frame, X_OFFSET+(x*32), Y_OFFSET+(y*32), 4, 4 );
 147:src/main.c    **** 		}
 148:src/main.c    **** 	}
 149:src/main.c    **** 
 150:src/main.c    **** 	//need to draw a player...
 151:src/main.c    **** }
 152:src/main.c    **** 
 153:src/main.c    **** LCDBitmap* getFrame(PlaydateAPI *pd, int x, int y)
 154:src/main.c    **** {
 155:src/main.c    **** 	int location = (y * MAZE_X) + x;
 156:src/main.c    **** 	
 157:src/main.c    **** 	// GCC compiler goes bananaes if our code looks like it can go out of bounds...
 158:src/main.c    **** 	if (location > MAZE_LINEAR) location = MAZE_LINEAR;
 159:src/main.c    **** 
 160:src/main.c    **** 	pd->system->logToConsole("Location: %d = (%d * %d) + %d", location, y, MAZE_X, x);
 161:src/main.c    **** 
 162:src/main.c    ****   return pd->graphics->getTableBitmap( GAMEDATA.bitmapTable, GAMEDATA.maze[location]);
 163:src/main.c    **** }
 164:src/main.c    **** 
 165:src/main.c    **** int build_maze(PlaydateAPI *pd)
 166:src/main.c    **** {
 167:src/main.c    **** 	for(int i=0;i<MAZE_LINEAR;i++)
 168:src/main.c    **** 	{	
 169:src/main.c    **** 	  GAMEDATA.maze[i] = rand() % 14;
 196              		.loc 1 169 30 view .LVU24
 197 003c 154D     		ldr	r5, .L12+24	@ tmp168,
 198 003e 06F5A874 		add	r4, r6, #336	@ _47, ivtmp.26,
 199              	.LVL6:
 200              		.loc 1 169 30 view .LVU25
 201              	.LBE9:
 202              	.LBE8:
 203              	@ src/main.c:85: 	GAMEDATA.player_y = 0;
  85:src/main.c    **** 	GAMEDATA.player_y = 0;
ARM GAS  /var/folders/ph/03bwgzvd4m303v9bqlrmh_yh0000gn/T//ccqgl99K.s 			page 8


 204              		.loc 1 85 20 view .LVU26
 205 0042 C7E95A33 		strd	r3, r3, [r7, #360]	@ tmp162, tmp162, tmp178,
  87:src/main.c    **** 
 206              		.loc 1 87 2 is_stmt 1 view .LVU27
 207              	.LVL7:
 208              	.LBB11:
 209              	.LBI8:
 165:src/main.c    **** {
 210              		.loc 1 165 5 view .LVU28
 211              	.LBE11:
 167:src/main.c    **** 	{	
 212              		.loc 1 167 2 view .LVU29
 213              	.LBB12:
 214              	.LBB10:
 167:src/main.c    **** 	{	
 215              		.loc 1 167 6 view .LVU30
 167:src/main.c    **** 	{	
 216              		.loc 1 167 14 view .LVU31
 217              	.L6:
 218              		.loc 1 169 4 view .LVU32
 219              	@ src/main.c:169: 	  GAMEDATA.maze[i] = rand() % 14;
 220              		.loc 1 169 23 is_stmt 0 view .LVU33
 221 0046 FFF7FEFF 		bl	rand		@
 222              	.LVL8:
 223              	@ src/main.c:169: 	  GAMEDATA.maze[i] = rand() % 14;
 224              		.loc 1 169 30 view .LVU34
 225 004a 85FB0032 		smull	r3, r2, r5, r0	@ tmp183, tmp167, tmp168, _31
 226 004e C317     		asrs	r3, r0, #31	@ tmp171, _31,
 227 0050 0244     		add	r2, r2, r0	@ tmp169, _31
 228 0052 C3EBE203 		rsb	r3, r3, r2, asr #3	@ tmp172, tmp171, tmp169,
 229 0056 C3EBC303 		rsb	r3, r3, r3, lsl #3	@ tmp175, tmp172, tmp172,
 230 005a A0EB4300 		sub	r0, r0, r3, lsl #1	@ tmp177, _31, tmp175,
 231              	@ src/main.c:169: 	  GAMEDATA.maze[i] = rand() % 14;
 232              		.loc 1 169 21 view .LVU35
 233 005e 46F8040F 		str	r0, [r6, #4]!	@ tmp177, MEM[base: _38, offset: 0B]
 167:src/main.c    **** 	{	
 234              		.loc 1 167 28 is_stmt 1 view .LVU36
 167:src/main.c    **** 	{	
 235              		.loc 1 167 14 view .LVU37
 236              	@ src/main.c:167: 	for(int i=0;i<MAZE_LINEAR;i++)
 167:src/main.c    **** 	{	
 237              		.loc 1 167 2 is_stmt 0 view .LVU38
 238 0062 A642     		cmp	r6, r4	@ ivtmp.26, _47
 239 0064 EFD1     		bne	.L6		@,
 240              	.LBE10:
 241              	.LBE12:
 242              	@ src/main.c:90: }
  90:src/main.c    **** 
 243              		.loc 1 90 1 view .LVU39
 244 0066 F8BD     		pop	{r3, r4, r5, r6, r7, pc}	@
 245              	.LVL9:
 246              	.L10:
  70:src/main.c    **** 	}
 247              		.loc 1 70 5 is_stmt 1 view .LVU40
 248 0068 7969     		ldr	r1, [r7, #20]	@, GAMEDATA.err
 249 006a DB68     		ldr	r3, [r3, #12]	@ _4->error, _4->error
 250 006c 0A48     		ldr	r0, .L12+28	@,
ARM GAS  /var/folders/ph/03bwgzvd4m303v9bqlrmh_yh0000gn/T//ccqgl99K.s 			page 9


 251 006e 9847     		blx	r3		@ _4->error
 252              	.LVL10:
 253 0070 D6E7     		b	.L3		@
 254              	.LVL11:
 255              	.L11:
  79:src/main.c    **** 	}
 256              		.loc 1 79 5 view .LVU41
 257 0072 7969     		ldr	r1, [r7, #20]	@, GAMEDATA.err
 258 0074 DB68     		ldr	r3, [r3, #12]	@ _12->error, _12->error
 259 0076 0948     		ldr	r0, .L12+32	@,
 260 0078 9847     		blx	r3		@ _12->error
 261              	.LVL12:
 262 007a DDE7     		b	.L5		@
 263              	.L13:
 264              		.align	2
 265              	.L12:
 266 007c 00000000 		.word	.LANCHOR0
 267 0080 00000000 		.word	.LC0
 268 0084 30000000 		.word	.LC2
 269 0088 14000000 		.word	.LANCHOR0+20
 270 008c 50000000 		.word	.LC3
 271 0090 80000000 		.word	.LC5
 272 0094 93244992 		.word	-1840700269
 273 0098 08000000 		.word	.LC1
 274 009c 58000000 		.word	.LC4
 275              		.cfi_endproc
 276              	.LFE16:
 277              		.size	init, .-init
 278              		.section	.rodata.eventHandler.str1.4,"aMS",%progbits,1
 279              		.align	2
 280              	.LC6:
 281 0000 7372632F 		.ascii	"src/main.c\000"
 281      6D61696E 
 281      2E6300
 282 000b 00       		.align	2
 283              	.LC7:
 284 000c 25733A25 		.ascii	"%s:%i Couldn't load font %s: %s\000"
 284      6920436F 
 284      756C646E 
 284      2774206C 
 284      6F616420 
 285              		.section	.text.eventHandler,"ax",%progbits
 286              		.align	1
 287              		.p2align 4,,15
 288              		.global	eventHandler
 289              		.syntax unified
 290              		.thumb
 291              		.thumb_func
 292              		.fpu fpv5-sp-d16
 293              		.type	eventHandler, %function
 294              	eventHandler:
 295              	.LVL13:
 296              	.LFB15:
  43:src/main.c    **** 	(void)arg; // arg is currently only used for event = kEventKeyPressed
 297              		.loc 1 43 1 view -0
 298              		.cfi_startproc
 299              		@ args = 0, pretend = 0, frame = 8
ARM GAS  /var/folders/ph/03bwgzvd4m303v9bqlrmh_yh0000gn/T//ccqgl99K.s 			page 10


 300              		@ frame_needed = 0, uses_anonymous_args = 0
  44:src/main.c    **** 
 301              		.loc 1 44 2 view .LVU43
  46:src/main.c    **** 	{
 302              		.loc 1 46 2 view .LVU44
 303              	@ src/main.c:46: 	if ( event == kEventInit )
  46:src/main.c    **** 	{
 304              		.loc 1 46 5 is_stmt 0 view .LVU45
 305 0000 B9B9     		cbnz	r1, .L18	@ tmp142,
 306              	.LBB13:
  48:src/main.c    **** 		font = pd->graphics->loadFont(fontpath, &err);
 307              		.loc 1 48 3 is_stmt 1 view .LVU46
  49:src/main.c    **** 		
 308              		.loc 1 49 3 view .LVU47
 309              	@ src/main.c:49: 		font = pd->graphics->loadFont(fontpath, &err);
  49:src/main.c    **** 		
 310              		.loc 1 49 22 is_stmt 0 view .LVU48
 311 0002 8368     		ldr	r3, [r0, #8]	@ pd_15(D)->graphics, pd_15(D)->graphics
 312              	.LBE13:
 313              	@ src/main.c:43: {
  43:src/main.c    **** 	(void)arg; // arg is currently only used for event = kEventKeyPressed
 314              		.loc 1 43 1 view .LVU49
 315 0004 30B5     		push	{r4, r5, lr}	@
 316              	.LCFI1:
 317              		.cfi_def_cfa_offset 12
 318              		.cfi_offset 4, -12
 319              		.cfi_offset 5, -8
 320              		.cfi_offset 14, -4
 321              	.LBB14:
 322              	@ src/main.c:49: 		font = pd->graphics->loadFont(fontpath, &err);
  49:src/main.c    **** 		
 323              		.loc 1 49 10 view .LVU50
 324 0006 114D     		ldr	r5, .L22	@ tmp125,
 325              	.LBE14:
 326              	@ src/main.c:43: {
  43:src/main.c    **** 	(void)arg; // arg is currently only used for event = kEventKeyPressed
 327              		.loc 1 43 1 view .LVU51
 328 0008 85B0     		sub	sp, sp, #20	@,,
 329              	.LCFI2:
 330              		.cfi_def_cfa_offset 32
 331              	.LBB15:
 332              	@ src/main.c:49: 		font = pd->graphics->loadFont(fontpath, &err);
  49:src/main.c    **** 		
 333              		.loc 1 49 10 view .LVU52
 334 000a D3F89030 		ldr	r3, [r3, #144]	@ _1->loadFont, _1->loadFont
 335 000e 0446     		mov	r4, r0	@ pd, tmp141
 336 0010 03A9     		add	r1, sp, #12	@,,
 337              	.LVL14:
  49:src/main.c    **** 		
 338              		.loc 1 49 10 view .LVU53
 339 0012 2868     		ldr	r0, [r5]	@, fontpath
 340              	.LVL15:
  49:src/main.c    **** 		
 341              		.loc 1 49 10 view .LVU54
 342 0014 9847     		blx	r3		@ _1->loadFont
 343              	.LVL16:
 344              	@ src/main.c:49: 		font = pd->graphics->loadFont(fontpath, &err);
ARM GAS  /var/folders/ph/03bwgzvd4m303v9bqlrmh_yh0000gn/T//ccqgl99K.s 			page 11


  49:src/main.c    **** 		
 345              		.loc 1 49 8 view .LVU55
 346 0016 0E4B     		ldr	r3, .L22+4	@ tmp129,
 347 0018 1860     		str	r0, [r3]	@ _4, font
  51:src/main.c    **** 			pd->system->error("%s:%i Couldn't load font %s: %s", __FILE__, __LINE__, fontpath, err);
 348              		.loc 1 51 3 is_stmt 1 view .LVU56
 349              	@ src/main.c:51: 		if ( font == NULL )
  51:src/main.c    **** 			pd->system->error("%s:%i Couldn't load font %s: %s", __FILE__, __LINE__, fontpath, err);
 350              		.loc 1 51 6 is_stmt 0 view .LVU57
 351 001a 60B1     		cbz	r0, .L21	@ _4,
 352              	.L16:
  54:src/main.c    **** 
 353              		.loc 1 54 3 is_stmt 1 view .LVU58
 354 001c 2046     		mov	r0, r4	@, pd
 355 001e FFF7FEFF 		bl	init		@
 356              	.LVL17:
  57:src/main.c    **** 	}
 357              		.loc 1 57 3 view .LVU59
 358              	@ src/main.c:57: 		pd->system->setUpdateCallback(update, pd);
  57:src/main.c    **** 	}
 359              		.loc 1 57 13 is_stmt 0 view .LVU60
 360 0022 2368     		ldr	r3, [r4]	@ pd_15(D)->system, pd_15(D)->system
 361              	@ src/main.c:57: 		pd->system->setUpdateCallback(update, pd);
  57:src/main.c    **** 	}
 362              		.loc 1 57 3 view .LVU61
 363 0024 2146     		mov	r1, r4	@, pd
 364 0026 0B48     		ldr	r0, .L22+8	@,
 365 0028 1B6A     		ldr	r3, [r3, #32]	@ _9->setUpdateCallback, _9->setUpdateCallback
 366 002a 9847     		blx	r3		@ _9->setUpdateCallback
 367              	.LVL18:
 368              	.LBE15:
  60:src/main.c    **** }
 369              		.loc 1 60 2 is_stmt 1 view .LVU62
 370              	@ src/main.c:61: }
  61:src/main.c    **** 
 371              		.loc 1 61 1 is_stmt 0 view .LVU63
 372 002c 0020     		movs	r0, #0	@,
 373 002e 05B0     		add	sp, sp, #20	@,,
 374              	.LCFI3:
 375              		.cfi_def_cfa_offset 12
 376              		@ sp needed	@
 377 0030 30BD     		pop	{r4, r5, pc}	@
 378              	.LVL19:
 379              	.L18:
 380              	.LCFI4:
 381              		.cfi_def_cfa_offset 0
 382              		.cfi_restore 4
 383              		.cfi_restore 5
 384              		.cfi_restore 14
  60:src/main.c    **** }
 385              		.loc 1 60 2 is_stmt 1 view .LVU64
 386              	@ src/main.c:61: }
  61:src/main.c    **** 
 387              		.loc 1 61 1 is_stmt 0 view .LVU65
 388 0032 0020     		movs	r0, #0	@,
 389              	.LVL20:
  61:src/main.c    **** 
ARM GAS  /var/folders/ph/03bwgzvd4m303v9bqlrmh_yh0000gn/T//ccqgl99K.s 			page 12


 390              		.loc 1 61 1 view .LVU66
 391 0034 7047     		bx	lr	@
 392              	.LVL21:
 393              	.L21:
 394              	.LCFI5:
 395              		.cfi_def_cfa_offset 32
 396              		.cfi_offset 4, -12
 397              		.cfi_offset 5, -8
 398              		.cfi_offset 14, -4
 399              	.LBB16:
  52:src/main.c    **** 
 400              		.loc 1 52 4 is_stmt 1 view .LVU67
 401              	@ src/main.c:52: 			pd->system->error("%s:%i Couldn't load font %s: %s", __FILE__, __LINE__, fontpa
  52:src/main.c    **** 
 402              		.loc 1 52 14 is_stmt 0 view .LVU68
 403 0036 2068     		ldr	r0, [r4]	@ pd_15(D)->system, pd_15(D)->system
 404              	@ src/main.c:52: 			pd->system->error("%s:%i Couldn't load font %s: %s", __FILE__, __LINE__, fontpa
  52:src/main.c    **** 
 405              		.loc 1 52 4 view .LVU69
 406 0038 3422     		movs	r2, #52	@,
 407 003a 0399     		ldr	r1, [sp, #12]	@ err, err
 408 003c 2B68     		ldr	r3, [r5]	@, fontpath
 409 003e 0091     		str	r1, [sp]	@ err,
 410 0040 0549     		ldr	r1, .L22+12	@,
 411 0042 C568     		ldr	r5, [r0, #12]	@ _5->error, _5->error
 412 0044 0548     		ldr	r0, .L22+16	@,
 413 0046 A847     		blx	r5		@ _5->error
 414              	.LVL22:
 415 0048 E8E7     		b	.L16		@
 416              	.L23:
 417 004a 00BF     		.align	2
 418              	.L22:
 419 004c 00000000 		.word	.LANCHOR1
 420 0050 00000000 		.word	.LANCHOR2
 421 0054 00000000 		.word	update
 422 0058 00000000 		.word	.LC6
 423 005c 0C000000 		.word	.LC7
 424              	.LBE16:
 425              		.cfi_endproc
 426              	.LFE15:
 427              		.size	eventHandler, .-eventHandler
 428              		.section	.text.ProcessInput,"ax",%progbits
 429              		.align	1
 430              		.p2align 4,,15
 431              		.global	ProcessInput
 432              		.syntax unified
 433              		.thumb
 434              		.thumb_func
 435              		.fpu fpv5-sp-d16
 436              		.type	ProcessInput, %function
 437              	ProcessInput:
 438              	.LVL23:
 439              	.LFB18:
 104:src/main.c    ****   PDButtons current;
 440              		.loc 1 104 1 is_stmt 1 view -0
 441              		.cfi_startproc
 442              		@ args = 0, pretend = 0, frame = 8
ARM GAS  /var/folders/ph/03bwgzvd4m303v9bqlrmh_yh0000gn/T//ccqgl99K.s 			page 13


 443              		@ frame_needed = 0, uses_anonymous_args = 0
 105:src/main.c    ****   PDButtons pushed;
 444              		.loc 1 105 3 view .LVU71
 106:src/main.c    ****   PDButtons released;
 445              		.loc 1 106 3 view .LVU72
 107:src/main.c    ****   pd->system->getButtonState( &current, &pushed, &released );
 446              		.loc 1 107 3 view .LVU73
 108:src/main.c    **** 
 447              		.loc 1 108 3 view .LVU74
 448              	@ src/main.c:104: {
 104:src/main.c    ****   PDButtons current;
 449              		.loc 1 104 1 is_stmt 0 view .LVU75
 450 0000 0346     		mov	r3, r0	@ tmp195, pd
 451 0002 70B5     		push	{r4, r5, r6, lr}	@
 452              	.LCFI6:
 453              		.cfi_def_cfa_offset 16
 454              		.cfi_offset 4, -16
 455              		.cfi_offset 5, -12
 456              		.cfi_offset 6, -8
 457              		.cfi_offset 14, -4
 458              	@ src/main.c:108:   pd->system->getButtonState( &current, &pushed, &released );
 108:src/main.c    **** 
 459              		.loc 1 108 13 view .LVU76
 460 0004 1B68     		ldr	r3, [r3]	@ pd_22(D)->system, pd_22(D)->system
 461              	@ src/main.c:104: {
 104:src/main.c    ****   PDButtons current;
 462              		.loc 1 104 1 view .LVU77
 463 0006 82B0     		sub	sp, sp, #8	@,,
 464              	.LCFI7:
 465              		.cfi_def_cfa_offset 24
 466              	@ src/main.c:108:   pd->system->getButtonState( &current, &pushed, &released );
 108:src/main.c    **** 
 467              		.loc 1 108 3 view .LVU78
 468 0008 5B6A     		ldr	r3, [r3, #36]	@ _1->getButtonState, _1->getButtonState
 469 000a 0DF10702 		add	r2, sp, #7	@,,
 470 000e 0DF10601 		add	r1, sp, #6	@,,
 471 0012 0DF10500 		add	r0, sp, #5	@,,
 472              	.LVL24:
 108:src/main.c    **** 
 473              		.loc 1 108 3 view .LVU79
 474 0016 9847     		blx	r3		@ _1->getButtonState
 475              	.LVL25:
 110:src/main.c    ****   else if ( pushed & kButtonRight ) { GAMEDATA.player_x++; }
 476              		.loc 1 110 3 is_stmt 1 view .LVU80
 477              	@ src/main.c:110:   if ( pushed & kButtonLeft  ) { GAMEDATA.player_x--; }
 110:src/main.c    ****   else if ( pushed & kButtonRight ) { GAMEDATA.player_x++; }
 478              		.loc 1 110 15 is_stmt 0 view .LVU81
 479 0018 9DF80630 		ldrb	r3, [sp, #6]	@ zero_extendqisi2	@ pushed.4_3, pushed
 480              	@ src/main.c:110:   if ( pushed & kButtonLeft  ) { GAMEDATA.player_x--; }
 110:src/main.c    ****   else if ( pushed & kButtonRight ) { GAMEDATA.player_x++; }
 481              		.loc 1 110 6 view .LVU82
 482 001c DC07     		lsls	r4, r3, #31	@, pushed.4_3,
 483 001e 15D5     		bpl	.L25		@,
 110:src/main.c    ****   else if ( pushed & kButtonRight ) { GAMEDATA.player_x++; }
 484              		.loc 1 110 34 is_stmt 1 discriminator 1 view .LVU83
 485              	@ src/main.c:110:   if ( pushed & kButtonLeft  ) { GAMEDATA.player_x--; }
 110:src/main.c    ****   else if ( pushed & kButtonRight ) { GAMEDATA.player_x++; }
ARM GAS  /var/folders/ph/03bwgzvd4m303v9bqlrmh_yh0000gn/T//ccqgl99K.s 			page 14


 486              		.loc 1 110 42 is_stmt 0 discriminator 1 view .LVU84
 487 0020 2A4B     		ldr	r3, .L41	@ tmp192,
 488 0022 D3E95A21 		ldrd	r2, r1, [r3, #360]	@ GAMEDATA.player_x, pretmp_40, tmp192,
 489              	@ src/main.c:110:   if ( pushed & kButtonLeft  ) { GAMEDATA.player_x--; }
 110:src/main.c    ****   else if ( pushed & kButtonRight ) { GAMEDATA.player_x++; }
 490              		.loc 1 110 51 discriminator 1 view .LVU85
 491 0026 013A     		subs	r2, r2, #1	@ _5, GAMEDATA.player_x,
 492 0028 C3F86821 		str	r2, [r3, #360]	@ _5, GAMEDATA.player_x
 493              	.L26:
 116:src/main.c    **** 	if (GAMEDATA.player_x >= MAZE_X-1) GAMEDATA.player_x = MAZE_X-1;
 494              		.loc 1 116 2 is_stmt 1 view .LVU86
 495              	@ src/main.c:116: 	if (GAMEDATA.player_x <= 0) GAMEDATA.player_x = 0;
 116:src/main.c    **** 	if (GAMEDATA.player_x >= MAZE_X-1) GAMEDATA.player_x = MAZE_X-1;
 496              		.loc 1 116 5 is_stmt 0 view .LVU87
 497 002c 002A     		cmp	r2, #0	@ _5,
 498 002e 17DD     		ble	.L38		@,
 499              	.L32:
 117:src/main.c    **** 	if (GAMEDATA.player_y <= 0) GAMEDATA.player_y = 0;
 500              		.loc 1 117 2 is_stmt 1 view .LVU88
 501              	@ src/main.c:117: 	if (GAMEDATA.player_x >= MAZE_X-1) GAMEDATA.player_x = MAZE_X-1;
 117:src/main.c    **** 	if (GAMEDATA.player_y <= 0) GAMEDATA.player_y = 0;
 502              		.loc 1 117 5 is_stmt 0 view .LVU89
 503 0030 0A2A     		cmp	r2, #10	@ _5,
 504 0032 02DD     		ble	.L33		@,
 117:src/main.c    **** 	if (GAMEDATA.player_y <= 0) GAMEDATA.player_y = 0;
 505              		.loc 1 117 37 is_stmt 1 discriminator 1 view .LVU90
 506              	@ src/main.c:117: 	if (GAMEDATA.player_x >= MAZE_X-1) GAMEDATA.player_x = MAZE_X-1;
 117:src/main.c    **** 	if (GAMEDATA.player_y <= 0) GAMEDATA.player_y = 0;
 507              		.loc 1 117 55 is_stmt 0 discriminator 1 view .LVU91
 508 0034 0B22     		movs	r2, #11	@ tmp187,
 509 0036 C3F86821 		str	r2, [r3, #360]	@ tmp187, GAMEDATA.player_x
 510              	.L33:
 118:src/main.c    **** 	if (GAMEDATA.player_y >= MAZE_Y-1) GAMEDATA.player_y = MAZE_Y-1;
 511              		.loc 1 118 2 is_stmt 1 view .LVU92
 512              	@ src/main.c:118: 	if (GAMEDATA.player_y <= 0) GAMEDATA.player_y = 0;
 118:src/main.c    **** 	if (GAMEDATA.player_y >= MAZE_Y-1) GAMEDATA.player_y = MAZE_Y-1;
 513              		.loc 1 118 5 is_stmt 0 view .LVU93
 514 003a 0029     		cmp	r1, #0	@ pretmp_40,
 515 003c 15DD     		ble	.L39		@,
 516              	.L34:
 119:src/main.c    **** }
 517              		.loc 1 119 2 is_stmt 1 view .LVU94
 518              	@ src/main.c:119: 	if (GAMEDATA.player_y >= MAZE_Y-1) GAMEDATA.player_y = MAZE_Y-1;
 119:src/main.c    **** }
 519              		.loc 1 119 5 is_stmt 0 view .LVU95
 520 003e 0529     		cmp	r1, #5	@ pretmp_40,
 521 0040 02DD     		ble	.L24		@,
 119:src/main.c    **** }
 522              		.loc 1 119 37 is_stmt 1 discriminator 1 view .LVU96
 523              	@ src/main.c:119: 	if (GAMEDATA.player_y >= MAZE_Y-1) GAMEDATA.player_y = MAZE_Y-1;
 119:src/main.c    **** }
 524              		.loc 1 119 55 is_stmt 0 discriminator 1 view .LVU97
 525 0042 0622     		movs	r2, #6	@ tmp191,
 526 0044 C3F86C21 		str	r2, [r3, #364]	@ tmp191, GAMEDATA.player_y
 527              	.L24:
 528              	@ src/main.c:120: }
 120:src/main.c    **** 
ARM GAS  /var/folders/ph/03bwgzvd4m303v9bqlrmh_yh0000gn/T//ccqgl99K.s 			page 15


 529              		.loc 1 120 1 view .LVU98
 530 0048 02B0     		add	sp, sp, #8	@,,
 531              	.LCFI8:
 532              		.cfi_remember_state
 533              		.cfi_def_cfa_offset 16
 534              		@ sp needed	@
 535 004a 70BD     		pop	{r4, r5, r6, pc}	@
 536              	.L25:
 537              	.LCFI9:
 538              		.cfi_restore_state
 111:src/main.c    ****   else if ( pushed & kButtonUp    ) { GAMEDATA.player_y--; }
 539              		.loc 1 111 8 is_stmt 1 view .LVU99
 540              	@ src/main.c:111:   else if ( pushed & kButtonRight ) { GAMEDATA.player_x++; }
 111:src/main.c    ****   else if ( pushed & kButtonUp    ) { GAMEDATA.player_y--; }
 541              		.loc 1 111 11 is_stmt 0 view .LVU100
 542 004c 9807     		lsls	r0, r3, #30	@, pushed.4_3,
 543 004e 11D5     		bpl	.L27		@,
 111:src/main.c    ****   else if ( pushed & kButtonUp    ) { GAMEDATA.player_y--; }
 544              		.loc 1 111 39 is_stmt 1 discriminator 1 view .LVU101
 545              	@ src/main.c:111:   else if ( pushed & kButtonRight ) { GAMEDATA.player_x++; }
 111:src/main.c    ****   else if ( pushed & kButtonUp    ) { GAMEDATA.player_y--; }
 546              		.loc 1 111 47 is_stmt 0 discriminator 1 view .LVU102
 547 0050 1E4B     		ldr	r3, .L41	@ tmp192,
 548 0052 D3E95A21 		ldrd	r2, r1, [r3, #360]	@ GAMEDATA.player_x, pretmp_40, tmp192,
 549              	@ src/main.c:111:   else if ( pushed & kButtonRight ) { GAMEDATA.player_x++; }
 111:src/main.c    ****   else if ( pushed & kButtonUp    ) { GAMEDATA.player_y--; }
 550              		.loc 1 111 56 discriminator 1 view .LVU103
 551 0056 0132     		adds	r2, r2, #1	@ _5, GAMEDATA.player_x,
 552              	@ src/main.c:116: 	if (GAMEDATA.player_x <= 0) GAMEDATA.player_x = 0;
 116:src/main.c    **** 	if (GAMEDATA.player_x >= MAZE_X-1) GAMEDATA.player_x = MAZE_X-1;
 553              		.loc 1 116 5 discriminator 1 view .LVU104
 554 0058 002A     		cmp	r2, #0	@ _5,
 555              	@ src/main.c:111:   else if ( pushed & kButtonRight ) { GAMEDATA.player_x++; }
 111:src/main.c    ****   else if ( pushed & kButtonUp    ) { GAMEDATA.player_y--; }
 556              		.loc 1 111 56 discriminator 1 view .LVU105
 557 005a C3F86821 		str	r2, [r3, #360]	@ _5, GAMEDATA.player_x
 116:src/main.c    **** 	if (GAMEDATA.player_x >= MAZE_X-1) GAMEDATA.player_x = MAZE_X-1;
 558              		.loc 1 116 2 is_stmt 1 discriminator 1 view .LVU106
 559              	@ src/main.c:116: 	if (GAMEDATA.player_x <= 0) GAMEDATA.player_x = 0;
 116:src/main.c    **** 	if (GAMEDATA.player_x >= MAZE_X-1) GAMEDATA.player_x = MAZE_X-1;
 560              		.loc 1 116 5 is_stmt 0 discriminator 1 view .LVU107
 561 005e E7DC     		bgt	.L32		@,
 562              	.L38:
 116:src/main.c    **** 	if (GAMEDATA.player_x >= MAZE_X-1) GAMEDATA.player_x = MAZE_X-1;
 563              		.loc 1 116 30 is_stmt 1 discriminator 1 view .LVU108
 564              	@ src/main.c:116: 	if (GAMEDATA.player_x <= 0) GAMEDATA.player_x = 0;
 116:src/main.c    **** 	if (GAMEDATA.player_x >= MAZE_X-1) GAMEDATA.player_x = MAZE_X-1;
 565              		.loc 1 116 48 is_stmt 0 discriminator 1 view .LVU109
 566 0060 0022     		movs	r2, #0	@ tmp185,
 567              	@ src/main.c:118: 	if (GAMEDATA.player_y <= 0) GAMEDATA.player_y = 0;
 118:src/main.c    **** 	if (GAMEDATA.player_y >= MAZE_Y-1) GAMEDATA.player_y = MAZE_Y-1;
 568              		.loc 1 118 5 discriminator 1 view .LVU110
 569 0062 0029     		cmp	r1, #0	@ pretmp_40,
 570              	@ src/main.c:116: 	if (GAMEDATA.player_x <= 0) GAMEDATA.player_x = 0;
 116:src/main.c    **** 	if (GAMEDATA.player_x >= MAZE_X-1) GAMEDATA.player_x = MAZE_X-1;
 571              		.loc 1 116 48 discriminator 1 view .LVU111
 572 0064 C3F86821 		str	r2, [r3, #360]	@ tmp185, GAMEDATA.player_x
ARM GAS  /var/folders/ph/03bwgzvd4m303v9bqlrmh_yh0000gn/T//ccqgl99K.s 			page 16


 117:src/main.c    **** 	if (GAMEDATA.player_y <= 0) GAMEDATA.player_y = 0;
 573              		.loc 1 117 2 is_stmt 1 discriminator 1 view .LVU112
 118:src/main.c    **** 	if (GAMEDATA.player_y >= MAZE_Y-1) GAMEDATA.player_y = MAZE_Y-1;
 574              		.loc 1 118 2 discriminator 1 view .LVU113
 575              	@ src/main.c:118: 	if (GAMEDATA.player_y <= 0) GAMEDATA.player_y = 0;
 118:src/main.c    **** 	if (GAMEDATA.player_y >= MAZE_Y-1) GAMEDATA.player_y = MAZE_Y-1;
 576              		.loc 1 118 5 is_stmt 0 discriminator 1 view .LVU114
 577 0068 E9DC     		bgt	.L34		@,
 578              	.L39:
 118:src/main.c    **** 	if (GAMEDATA.player_y >= MAZE_Y-1) GAMEDATA.player_y = MAZE_Y-1;
 579              		.loc 1 118 30 is_stmt 1 discriminator 1 view .LVU115
 580              	@ src/main.c:118: 	if (GAMEDATA.player_y <= 0) GAMEDATA.player_y = 0;
 118:src/main.c    **** 	if (GAMEDATA.player_y >= MAZE_Y-1) GAMEDATA.player_y = MAZE_Y-1;
 581              		.loc 1 118 48 is_stmt 0 discriminator 1 view .LVU116
 582 006a 0022     		movs	r2, #0	@ tmp189,
 583 006c C3F86C21 		str	r2, [r3, #364]	@ tmp189, GAMEDATA.player_y
 119:src/main.c    **** }
 584              		.loc 1 119 2 is_stmt 1 discriminator 1 view .LVU117
 585              	@ src/main.c:120: }
 120:src/main.c    **** 
 586              		.loc 1 120 1 is_stmt 0 discriminator 1 view .LVU118
 587 0070 02B0     		add	sp, sp, #8	@,,
 588              	.LCFI10:
 589              		.cfi_remember_state
 590              		.cfi_def_cfa_offset 16
 591              		@ sp needed	@
 592 0072 70BD     		pop	{r4, r5, r6, pc}	@
 593              	.L27:
 594              	.LCFI11:
 595              		.cfi_restore_state
 112:src/main.c    ****   else if ( pushed & kButtonDown  ) { GAMEDATA.player_y++; }
 596              		.loc 1 112 8 is_stmt 1 view .LVU119
 597              	@ src/main.c:112:   else if ( pushed & kButtonUp    ) { GAMEDATA.player_y--; }
 112:src/main.c    ****   else if ( pushed & kButtonDown  ) { GAMEDATA.player_y++; }
 598              		.loc 1 112 11 is_stmt 0 view .LVU120
 599 0074 5907     		lsls	r1, r3, #29	@, pushed.4_3,
 600 0076 08D4     		bmi	.L40		@,
 113:src/main.c    ****   else if ( pushed & kButtonA ) { build_maze(pd); }
 601              		.loc 1 113 8 is_stmt 1 view .LVU121
 602              	@ src/main.c:113:   else if ( pushed & kButtonDown  ) { GAMEDATA.player_y++; }
 113:src/main.c    ****   else if ( pushed & kButtonA ) { build_maze(pd); }
 603              		.loc 1 113 11 is_stmt 0 view .LVU122
 604 0078 1A07     		lsls	r2, r3, #28	@, pushed.4_3,
 605 007a 0DD5     		bpl	.L29		@,
 113:src/main.c    ****   else if ( pushed & kButtonA ) { build_maze(pd); }
 606              		.loc 1 113 39 is_stmt 1 discriminator 1 view .LVU123
 607              	@ src/main.c:113:   else if ( pushed & kButtonDown  ) { GAMEDATA.player_y++; }
 113:src/main.c    ****   else if ( pushed & kButtonA ) { build_maze(pd); }
 608              		.loc 1 113 47 is_stmt 0 discriminator 1 view .LVU124
 609 007c 134B     		ldr	r3, .L41	@ tmp192,
 610 007e D3E95A21 		ldrd	r2, r1, [r3, #360]	@ _5, GAMEDATA.player_y, tmp192,
 611              	@ src/main.c:113:   else if ( pushed & kButtonDown  ) { GAMEDATA.player_y++; }
 113:src/main.c    ****   else if ( pushed & kButtonA ) { build_maze(pd); }
 612              		.loc 1 113 56 discriminator 1 view .LVU125
 613 0082 0131     		adds	r1, r1, #1	@ pretmp_40, GAMEDATA.player_y,
 614 0084 C3F86C11 		str	r1, [r3, #364]	@ pretmp_40, GAMEDATA.player_y
 615 0088 D0E7     		b	.L26		@
ARM GAS  /var/folders/ph/03bwgzvd4m303v9bqlrmh_yh0000gn/T//ccqgl99K.s 			page 17


 616              	.L40:
 112:src/main.c    ****   else if ( pushed & kButtonDown  ) { GAMEDATA.player_y++; }
 617              		.loc 1 112 39 is_stmt 1 discriminator 1 view .LVU126
 618              	@ src/main.c:112:   else if ( pushed & kButtonUp    ) { GAMEDATA.player_y--; }
 112:src/main.c    ****   else if ( pushed & kButtonDown  ) { GAMEDATA.player_y++; }
 619              		.loc 1 112 47 is_stmt 0 discriminator 1 view .LVU127
 620 008a 104B     		ldr	r3, .L41	@ tmp192,
 621 008c D3E95A21 		ldrd	r2, r1, [r3, #360]	@ _5, GAMEDATA.player_y, tmp192,
 622              	@ src/main.c:112:   else if ( pushed & kButtonUp    ) { GAMEDATA.player_y--; }
 112:src/main.c    ****   else if ( pushed & kButtonDown  ) { GAMEDATA.player_y++; }
 623              		.loc 1 112 56 discriminator 1 view .LVU128
 624 0090 0139     		subs	r1, r1, #1	@ pretmp_40, GAMEDATA.player_y,
 625 0092 C3F86C11 		str	r1, [r3, #364]	@ pretmp_40, GAMEDATA.player_y
 626 0096 C9E7     		b	.L26		@
 627              	.L29:
 114:src/main.c    **** 
 628              		.loc 1 114 8 is_stmt 1 view .LVU129
 629              	@ src/main.c:114:   else if ( pushed & kButtonA ) { build_maze(pd); }
 114:src/main.c    **** 
 630              		.loc 1 114 11 is_stmt 0 view .LVU130
 631 0098 9B06     		lsls	r3, r3, #26	@, pushed.4_3,
 632 009a 13D5     		bpl	.L30		@,
 633 009c 0C4E     		ldr	r6, .L41+4	@ ivtmp.41,
 634              	.LBB17:
 635              	.LBB18:
 636              	@ src/main.c:169: 	  GAMEDATA.maze[i] = rand() % 14;
 637              		.loc 1 169 30 view .LVU131
 638 009e 0D4D     		ldr	r5, .L41+8	@ tmp170,
 639 00a0 06F5A874 		add	r4, r6, #336	@ _60, ivtmp.41,
 640              	.L31:
 641              		.loc 1 169 4 is_stmt 1 view .LVU132
 642              	@ src/main.c:169: 	  GAMEDATA.maze[i] = rand() % 14;
 643              		.loc 1 169 23 is_stmt 0 view .LVU133
 644 00a4 FFF7FEFF 		bl	rand		@
 645              	.LVL26:
 646              	@ src/main.c:169: 	  GAMEDATA.maze[i] = rand() % 14;
 647              		.loc 1 169 30 view .LVU134
 648 00a8 85FB0032 		smull	r3, r2, r5, r0	@ tmp199, tmp169, tmp170, _36
 649 00ac C317     		asrs	r3, r0, #31	@ tmp173, _36,
 650 00ae 0244     		add	r2, r2, r0	@ tmp171, _36
 651 00b0 C3EBE203 		rsb	r3, r3, r2, asr #3	@ tmp174, tmp173, tmp171,
 652 00b4 C3EBC303 		rsb	r3, r3, r3, lsl #3	@ tmp177, tmp174, tmp174,
 653 00b8 A0EB4300 		sub	r0, r0, r3, lsl #1	@ tmp179, _36, tmp177,
 654              	@ src/main.c:169: 	  GAMEDATA.maze[i] = rand() % 14;
 655              		.loc 1 169 21 view .LVU135
 656 00bc 46F8040F 		str	r0, [r6, #4]!	@ tmp179, MEM[base: _58, offset: 0B]
 167:src/main.c    **** 	{	
 657              		.loc 1 167 28 is_stmt 1 view .LVU136
 167:src/main.c    **** 	{	
 658              		.loc 1 167 14 view .LVU137
 659              	@ src/main.c:167: 	for(int i=0;i<MAZE_LINEAR;i++)
 167:src/main.c    **** 	{	
 660              		.loc 1 167 2 is_stmt 0 view .LVU138
 661 00c0 A642     		cmp	r6, r4	@ ivtmp.41, _60
 662 00c2 EFD1     		bne	.L31		@,
 663              	.L30:
 664 00c4 014B     		ldr	r3, .L41	@ tmp192,
ARM GAS  /var/folders/ph/03bwgzvd4m303v9bqlrmh_yh0000gn/T//ccqgl99K.s 			page 18


 665 00c6 D3E95A21 		ldrd	r2, r1, [r3, #360]	@ _5, pretmp_40, tmp192,
 666 00ca AFE7     		b	.L26		@
 667              	.L42:
 668              		.align	2
 669              	.L41:
 670 00cc 00000000 		.word	.LANCHOR0
 671 00d0 14000000 		.word	.LANCHOR0+20
 672 00d4 93244992 		.word	-1840700269
 673              	.LBE18:
 674              	.LBE17:
 675              		.cfi_endproc
 676              	.LFE18:
 677              		.size	ProcessInput, .-ProcessInput
 678              		.global	__aeabi_dadd
 679              		.global	__aeabi_dcmpgt
 680              		.global	__aeabi_d2iz
 681              		.section	.text.drawPlayer,"ax",%progbits
 682              		.align	1
 683              		.p2align 4,,15
 684              		.global	drawPlayer
 685              		.syntax unified
 686              		.thumb
 687              		.thumb_func
 688              		.fpu fpv5-sp-d16
 689              		.type	drawPlayer, %function
 690              	drawPlayer:
 691              	.LVL27:
 692              	.LFB19:
 123:src/main.c    ****   GAMEDATA.playerFrame += 0.2;
 693              		.loc 1 123 1 is_stmt 1 view -0
 694              		.cfi_startproc
 695              		@ args = 0, pretend = 0, frame = 0
 696              		@ frame_needed = 0, uses_anonymous_args = 0
 124:src/main.c    **** 
 697              		.loc 1 124 3 view .LVU140
 698              	@ src/main.c:123: {
 123:src/main.c    ****   GAMEDATA.playerFrame += 0.2;
 699              		.loc 1 123 1 is_stmt 0 view .LVU141
 700 0000 2DE9F041 		push	{r4, r5, r6, r7, r8, lr}	@
 701              	.LCFI12:
 702              		.cfi_def_cfa_offset 24
 703              		.cfi_offset 4, -24
 704              		.cfi_offset 5, -20
 705              		.cfi_offset 6, -16
 706              		.cfi_offset 7, -12
 707              		.cfi_offset 8, -8
 708              		.cfi_offset 14, -4
 709              	@ src/main.c:124:   GAMEDATA.playerFrame += 0.2;
 124:src/main.c    **** 
 710              		.loc 1 124 24 view .LVU142
 711 0004 1A4C     		ldr	r4, .L47+8	@ tmp147,
 712              	@ src/main.c:123: {
 123:src/main.c    ****   GAMEDATA.playerFrame += 0.2;
 713              		.loc 1 123 1 view .LVU143
 714 0006 0546     		mov	r5, r0	@ tmp148, pd
 715              	@ src/main.c:124:   GAMEDATA.playerFrame += 0.2;
 124:src/main.c    **** 
ARM GAS  /var/folders/ph/03bwgzvd4m303v9bqlrmh_yh0000gn/T//ccqgl99K.s 			page 19


 716              		.loc 1 124 24 view .LVU144
 717 0008 17A3     		adr	r3, .L47	@,
 718 000a D3E90023 		ldrd	r2, [r3]	@,
 719 000e D4E95C01 		ldrd	r0, [r4, #368]	@, tmp147,
 720              	.LVL28:
 124:src/main.c    **** 
 721              		.loc 1 124 24 view .LVU145
 722 0012 FFF7FEFF 		bl	__aeabi_dadd		@
 723              	.LVL29:
 724              	@ src/main.c:126: 	if (GAMEDATA.playerFrame > 4) GAMEDATA.playerFrame = 0;
 126:src/main.c    **** 
 725              		.loc 1 126 5 view .LVU146
 726 0016 0022     		movs	r2, #0	@,
 727 0018 164B     		ldr	r3, .L47+12	@,
 126:src/main.c    **** 
 728              		.loc 1 126 2 is_stmt 1 view .LVU147
 729              	@ src/main.c:124:   GAMEDATA.playerFrame += 0.2;
 124:src/main.c    **** 
 730              		.loc 1 124 24 is_stmt 0 view .LVU148
 731 001a 0646     		mov	r6, r0	@ tmp149,
 732 001c 0F46     		mov	r7, r1	@,
 733              	@ src/main.c:126: 	if (GAMEDATA.playerFrame > 4) GAMEDATA.playerFrame = 0;
 126:src/main.c    **** 
 734              		.loc 1 126 5 view .LVU149
 735 001e FFF7FEFF 		bl	__aeabi_dcmpgt		@
 736              	.LVL30:
 737 0022 D0B9     		cbnz	r0, .L44	@ tmp150,
 738 0024 3946     		mov	r1, r7	@,
 739 0026 3046     		mov	r0, r6	@, tmp127
 740              	@ src/main.c:124:   GAMEDATA.playerFrame += 0.2;
 124:src/main.c    **** 
 741              		.loc 1 124 24 view .LVU150
 742 0028 C4E95C67 		strd	r6, [r4, #368]	@ tmp127, tmp147,
 743 002c FFF7FEFF 		bl	__aeabi_d2iz		@
 744              	.LVL31:
 745 0030 0146     		mov	r1, r0	@ _25, tmp151
 746              	.L45:
 128:src/main.c    ****   pd->graphics->drawScaledBitmap( p, X_OFFSET+(GAMEDATA.player_x*32), Y_OFFSET+(GAMEDATA.player_y*3
 747              		.loc 1 128 2 is_stmt 1 view .LVU151
 748              	@ src/main.c:128: 	LCDBitmap *p = pd->graphics->getTableBitmap( GAMEDATA.playerTable, (int) GAMEDAT
 128:src/main.c    ****   pd->graphics->drawScaledBitmap( p, X_OFFSET+(GAMEDATA.player_x*32), Y_OFFSET+(GAMEDATA.player_y*3
 749              		.loc 1 128 29 is_stmt 0 view .LVU152
 750 0032 AB68     		ldr	r3, [r5, #8]	@ pd_20(D)->graphics, pd_20(D)->graphics
 751              	@ src/main.c:128: 	LCDBitmap *p = pd->graphics->getTableBitmap( GAMEDATA.playerTable, (int) GAMEDAT
 128:src/main.c    ****   pd->graphics->drawScaledBitmap( p, X_OFFSET+(GAMEDATA.player_x*32), Y_OFFSET+(GAMEDATA.player_y*3
 752              		.loc 1 128 17 view .LVU153
 753 0034 2069     		ldr	r0, [r4, #16]	@, GAMEDATA.playerTable
 754 0036 D3F88C30 		ldr	r3, [r3, #140]	@ _3->getTableBitmap, _3->getTableBitmap
 755 003a 9847     		blx	r3		@ _3->getTableBitmap
 756              	.LVL32:
 129:src/main.c    **** }
 757              		.loc 1 129 3 is_stmt 1 view .LVU154
 758 003c F1EE000A 		vmov.f32	s1, #4.0e+0	@,
 759              	@ src/main.c:129:   pd->graphics->drawScaledBitmap( p, X_OFFSET+(GAMEDATA.player_x*32), Y_OFFSET+(G
 129:src/main.c    **** }
 760              		.loc 1 129 15 is_stmt 0 view .LVU155
 761 0040 AB68     		ldr	r3, [r5, #8]	@ pd_20(D)->graphics, pd_20(D)->graphics
ARM GAS  /var/folders/ph/03bwgzvd4m303v9bqlrmh_yh0000gn/T//ccqgl99K.s 			page 20


 762              	@ src/main.c:129:   pd->graphics->drawScaledBitmap( p, X_OFFSET+(GAMEDATA.player_x*32), Y_OFFSET+(G
 129:src/main.c    **** }
 763              		.loc 1 129 65 view .LVU156
 764 0042 D4E95A12 		ldrd	r1, r2, [r4, #360]	@ GAMEDATA.player_x, GAMEDATA.player_y, tmp147,
 765              	@ src/main.c:129:   pd->graphics->drawScaledBitmap( p, X_OFFSET+(GAMEDATA.player_x*32), Y_OFFSET+(G
 129:src/main.c    **** }
 766              		.loc 1 129 3 view .LVU157
 767 0046 B0EE600A 		vmov.f32	s0, s1	@,
 768 004a 5B6D     		ldr	r3, [r3, #84]	@ _8->drawScaledBitmap, _8->drawScaledBitmap
 769              	@ src/main.c:129:   pd->graphics->drawScaledBitmap( p, X_OFFSET+(GAMEDATA.player_x*32), Y_OFFSET+(G
 129:src/main.c    **** }
 770              		.loc 1 129 98 view .LVU158
 771 004c 5201     		lsls	r2, r2, #5	@ tmp138, GAMEDATA.player_y,
 772              	@ src/main.c:129:   pd->graphics->drawScaledBitmap( p, X_OFFSET+(GAMEDATA.player_x*32), Y_OFFSET+(G
 129:src/main.c    **** }
 773              		.loc 1 129 65 view .LVU159
 774 004e 4901     		lsls	r1, r1, #5	@ tmp142, GAMEDATA.player_x,
 775              	@ src/main.c:129:   pd->graphics->drawScaledBitmap( p, X_OFFSET+(GAMEDATA.player_x*32), Y_OFFSET+(G
 129:src/main.c    **** }
 776              		.loc 1 129 3 view .LVU160
 777 0050 0832     		adds	r2, r2, #8	@, tmp138,
 778 0052 0731     		adds	r1, r1, #7	@, tmp142,
 779              	@ src/main.c:130: }
 130:src/main.c    **** 
 780              		.loc 1 130 1 view .LVU161
 781 0054 BDE8F041 		pop	{r4, r5, r6, r7, r8, lr}	@
 782              	.LCFI13:
 783              		.cfi_remember_state
 784              		.cfi_restore 14
 785              		.cfi_restore 8
 786              		.cfi_restore 7
 787              		.cfi_restore 6
 788              		.cfi_restore 5
 789              		.cfi_restore 4
 790              		.cfi_def_cfa_offset 0
 791              	.LVL33:
 792              	@ src/main.c:129:   pd->graphics->drawScaledBitmap( p, X_OFFSET+(GAMEDATA.player_x*32), Y_OFFSET+(G
 129:src/main.c    **** }
 793              		.loc 1 129 3 view .LVU162
 794 0058 1847     		bx	r3	@ indirect register sibling call	@ _8->drawScaledBitmap
 795              	.LVL34:
 796              	.L44:
 797              	.LCFI14:
 798              		.cfi_restore_state
 126:src/main.c    **** 
 799              		.loc 1 126 32 is_stmt 1 discriminator 1 view .LVU163
 800              	@ src/main.c:126: 	if (GAMEDATA.playerFrame > 4) GAMEDATA.playerFrame = 0;
 126:src/main.c    **** 
 801              		.loc 1 126 53 is_stmt 0 discriminator 1 view .LVU164
 802 005a 0022     		movs	r2, #0	@ tmp132,
 803 005c 0023     		movs	r3, #0	@,
 804 005e 0021     		movs	r1, #0	@ _25,
 805 0060 C4E95C23 		strd	r2, [r4, #368]	@ tmp132, tmp147,
 806 0064 E5E7     		b	.L45		@
 807              	.L48:
 808 0066 00BF     		.align	3
 809              	.L47:
ARM GAS  /var/folders/ph/03bwgzvd4m303v9bqlrmh_yh0000gn/T//ccqgl99K.s 			page 21


 810 0068 9A999999 		.word	2576980378
 811 006c 9999C93F 		.word	1070176665
 812 0070 00000000 		.word	.LANCHOR0
 813 0074 00001040 		.word	1074790400
 814              		.cfi_endproc
 815              	.LFE19:
 816              		.size	drawPlayer, .-drawPlayer
 817              		.section	.rodata.getFrame.str1.4,"aMS",%progbits,1
 818              		.align	2
 819              	.LC8:
 820 0000 4C6F6361 		.ascii	"Location: %d = (%d * %d) + %d\000"
 820      74696F6E 
 820      3A202564 
 820      203D2028 
 820      2564202A 
 821              		.section	.text.getFrame,"ax",%progbits
 822              		.align	1
 823              		.p2align 4,,15
 824              		.global	getFrame
 825              		.syntax unified
 826              		.thumb
 827              		.thumb_func
 828              		.fpu fpv5-sp-d16
 829              		.type	getFrame, %function
 830              	getFrame:
 831              	.LVL35:
 832              	.LFB21:
 154:src/main.c    **** 	int location = (y * MAZE_X) + x;
 833              		.loc 1 154 1 is_stmt 1 view -0
 834              		.cfi_startproc
 835              		@ args = 0, pretend = 0, frame = 0
 836              		@ frame_needed = 0, uses_anonymous_args = 0
 155:src/main.c    **** 	
 837              		.loc 1 155 2 view .LVU166
 838              	@ src/main.c:154: {
 154:src/main.c    **** 	int location = (y * MAZE_X) + x;
 839              		.loc 1 154 1 is_stmt 0 view .LVU167
 840 0000 70B5     		push	{r4, r5, r6, lr}	@
 841              	.LCFI15:
 842              		.cfi_def_cfa_offset 16
 843              		.cfi_offset 4, -16
 844              		.cfi_offset 5, -12
 845              		.cfi_offset 6, -8
 846              		.cfi_offset 14, -4
 847              	@ src/main.c:155: 	int location = (y * MAZE_X) + x;
 155:src/main.c    **** 	
 848              		.loc 1 155 20 view .LVU168
 849 0002 02EB4204 		add	r4, r2, r2, lsl #1	@ tmp125, tmp139, tmp139,
 850              	@ src/main.c:154: {
 154:src/main.c    **** 	int location = (y * MAZE_X) + x;
 851              		.loc 1 154 1 view .LVU169
 852 0006 82B0     		sub	sp, sp, #8	@,,
 853              	.LCFI16:
 854              		.cfi_def_cfa_offset 24
 855              	@ src/main.c:154: {
 154:src/main.c    **** 	int location = (y * MAZE_X) + x;
 856              		.loc 1 154 1 view .LVU170
ARM GAS  /var/folders/ph/03bwgzvd4m303v9bqlrmh_yh0000gn/T//ccqgl99K.s 			page 22


 857 0008 0546     		mov	r5, r0	@ pd, tmp137
 858              	@ src/main.c:160: 	pd->system->logToConsole("Location: %d = (%d * %d) + %d", location, y, MAZE_X, x
 160:src/main.c    **** 
 859              		.loc 1 160 2 view .LVU171
 860 000a 0C23     		movs	r3, #12	@,
 861              	@ src/main.c:155: 	int location = (y * MAZE_X) + x;
 155:src/main.c    **** 	
 862              		.loc 1 155 6 view .LVU172
 863 000c 01EB8404 		add	r4, r1, r4, lsl #2	@ location, x, tmp125,
 864              	.LVL36:
 158:src/main.c    **** 
 865              		.loc 1 158 2 is_stmt 1 view .LVU173
 866              	@ src/main.c:160: 	pd->system->logToConsole("Location: %d = (%d * %d) + %d", location, y, MAZE_X, x
 160:src/main.c    **** 
 867              		.loc 1 160 2 is_stmt 0 view .LVU174
 868 0010 0091     		str	r1, [sp]	@ x,
 869              	@ src/main.c:160: 	pd->system->logToConsole("Location: %d = (%d * %d) + %d", location, y, MAZE_X, x
 160:src/main.c    **** 
 870              		.loc 1 160 12 view .LVU175
 871 0012 2968     		ldr	r1, [r5]	@ pd_13(D)->system, pd_13(D)->system
 872              	.LVL37:
 160:src/main.c    **** 
 873              		.loc 1 160 12 view .LVU176
 874 0014 542C     		cmp	r4, #84	@ location,
 875              	@ src/main.c:160: 	pd->system->logToConsole("Location: %d = (%d * %d) + %d", location, y, MAZE_X, x
 160:src/main.c    **** 
 876              		.loc 1 160 2 view .LVU177
 877 0016 0948     		ldr	r0, .L51	@,
 878              	.LVL38:
 160:src/main.c    **** 
 879              		.loc 1 160 2 view .LVU178
 880 0018 8E68     		ldr	r6, [r1, #8]	@ _2->logToConsole, _2->logToConsole
 881 001a A8BF     		it	ge
 882 001c 5424     		movge	r4, #84	@ location,
 883              	.LVL39:
 160:src/main.c    **** 
 884              		.loc 1 160 2 is_stmt 1 view .LVU179
 885 001e 2146     		mov	r1, r4	@, location
 886              	@ src/main.c:162:   return pd->graphics->getTableBitmap( GAMEDATA.bitmapTable, GAMEDATA.maze[locati
 162:src/main.c    **** }
 887              		.loc 1 162 10 is_stmt 0 view .LVU180
 888 0020 0634     		adds	r4, r4, #6	@ tmp131, location,
 889              	.LVL40:
 890              	@ src/main.c:160: 	pd->system->logToConsole("Location: %d = (%d * %d) + %d", location, y, MAZE_X, x
 160:src/main.c    **** 
 891              		.loc 1 160 2 view .LVU181
 892 0022 B047     		blx	r6		@ _2->logToConsole
 893              	.LVL41:
 162:src/main.c    **** }
 894              		.loc 1 162 3 is_stmt 1 view .LVU182
 895              	@ src/main.c:162:   return pd->graphics->getTableBitmap( GAMEDATA.bitmapTable, GAMEDATA.maze[locati
 162:src/main.c    **** }
 896              		.loc 1 162 10 is_stmt 0 view .LVU183
 897 0024 064B     		ldr	r3, .L51+4	@ tmp130,
 898              	@ src/main.c:162:   return pd->graphics->getTableBitmap( GAMEDATA.bitmapTable, GAMEDATA.maze[locati
 162:src/main.c    **** }
 899              		.loc 1 162 22 view .LVU184
ARM GAS  /var/folders/ph/03bwgzvd4m303v9bqlrmh_yh0000gn/T//ccqgl99K.s 			page 23


 900 0026 AA68     		ldr	r2, [r5, #8]	@ pd_13(D)->graphics, pd_13(D)->graphics
 901              	@ src/main.c:162:   return pd->graphics->getTableBitmap( GAMEDATA.bitmapTable, GAMEDATA.maze[locati
 162:src/main.c    **** }
 902              		.loc 1 162 10 view .LVU185
 903 0028 53F82410 		ldr	r1, [r3, r4, lsl #2]	@, GAMEDATA.maze
 904 002c D2F88C20 		ldr	r2, [r2, #140]	@ _4->getTableBitmap, _4->getTableBitmap
 905 0030 D868     		ldr	r0, [r3, #12]	@, GAMEDATA.bitmapTable
 906              	@ src/main.c:163: }
 163:src/main.c    **** 
 907              		.loc 1 163 1 view .LVU186
 908 0032 02B0     		add	sp, sp, #8	@,,
 909              	.LCFI17:
 910              		.cfi_def_cfa_offset 16
 911              		@ sp needed	@
 912 0034 BDE87040 		pop	{r4, r5, r6, lr}	@
 913              	.LCFI18:
 914              		.cfi_restore 14
 915              		.cfi_restore 6
 916              		.cfi_restore 5
 917              		.cfi_restore 4
 918              		.cfi_def_cfa_offset 0
 919              	.LVL42:
 920              	@ src/main.c:162:   return pd->graphics->getTableBitmap( GAMEDATA.bitmapTable, GAMEDATA.maze[locati
 162:src/main.c    **** }
 921              		.loc 1 162 10 view .LVU187
 922 0038 1047     		bx	r2		@ _4->getTableBitmap
 923              	.LVL43:
 924              	.L52:
 925 003a 00BF     		.align	2
 926              	.L51:
 927 003c 00000000 		.word	.LC8
 928 0040 00000000 		.word	.LANCHOR0
 929              		.cfi_endproc
 930              	.LFE21:
 931              		.size	getFrame, .-getFrame
 932              		.section	.text.drawMaze,"ax",%progbits
 933              		.align	1
 934              		.p2align 4,,15
 935              		.global	drawMaze
 936              		.syntax unified
 937              		.thumb
 938              		.thumb_func
 939              		.fpu fpv5-sp-d16
 940              		.type	drawMaze, %function
 941              	drawMaze:
 942              	.LVL44:
 943              	.LFB20:
 133:src/main.c    **** 	//Loop over the grid like it's 1992...
 944              		.loc 1 133 1 is_stmt 1 view -0
 945              		.cfi_startproc
 946              		@ args = 0, pretend = 0, frame = 0
 947              		@ frame_needed = 0, uses_anonymous_args = 0
 135:src/main.c    **** 	int y = 0;
 948              		.loc 1 135 2 view .LVU189
 136:src/main.c    **** 
 949              		.loc 1 136 2 view .LVU190
 139:src/main.c    **** 
ARM GAS  /var/folders/ph/03bwgzvd4m303v9bqlrmh_yh0000gn/T//ccqgl99K.s 			page 24


 950              		.loc 1 139 3 view .LVU191
 951              	@ src/main.c:133: {
 133:src/main.c    **** 	//Loop over the grid like it's 1992...
 952              		.loc 1 133 1 is_stmt 0 view .LVU192
 953 0000 F8B5     		push	{r3, r4, r5, r6, r7, lr}	@
 954              	.LCFI19:
 955              		.cfi_def_cfa_offset 24
 956              		.cfi_offset 3, -24
 957              		.cfi_offset 4, -20
 958              		.cfi_offset 5, -16
 959              		.cfi_offset 6, -12
 960              		.cfi_offset 7, -8
 961              		.cfi_offset 14, -4
 962              	@ src/main.c:139:   GAMEDATA.frame = 0;
 139:src/main.c    **** 
 963              		.loc 1 139 18 view .LVU193
 964 0002 0022     		movs	r2, #0	@ tmp123,
 965 0004 0E4B     		ldr	r3, .L59	@ tmp122,
 966 0006 0727     		movs	r7, #7	@ ivtmp.62,
 967              	@ src/main.c:133: {
 133:src/main.c    **** 	//Loop over the grid like it's 1992...
 968              		.loc 1 133 1 view .LVU194
 969 0008 0546     		mov	r5, r0	@ pd, tmp129
 970              	@ src/main.c:141: 	for (x=0;x<MAZE_X;x++)
 141:src/main.c    **** 	{
 971              		.loc 1 141 8 view .LVU195
 972 000a 0026     		movs	r6, #0	@ x,
 973              	@ src/main.c:139:   GAMEDATA.frame = 0;
 139:src/main.c    **** 
 974              		.loc 1 139 18 view .LVU196
 975 000c 9A60     		str	r2, [r3, #8]	@ float	@ tmp123, GAMEDATA.frame
 141:src/main.c    **** 	{
 976              		.loc 1 141 2 is_stmt 1 view .LVU197
 141:src/main.c    **** 	{
 977              		.loc 1 141 11 view .LVU198
 978              	.LVL45:
 979              	.L54:
 143:src/main.c    **** 		{
 980              		.loc 1 143 12 view .LVU199
 981              	@ src/main.c:143: 		for (y=0;y<MAZE_Y;y++)
 143:src/main.c    **** 		{
 982              		.loc 1 143 9 is_stmt 0 view .LVU200
 983 000e 0024     		movs	r4, #0	@ y,
 984              	.LVL46:
 985              	.L55:
 986              	.LBB19:
 145:src/main.c    ****       pd->graphics->drawScaledBitmap( frame, X_OFFSET+(x*32), Y_OFFSET+(y*32), 4, 4 );
 987              		.loc 1 145 4 is_stmt 1 discriminator 3 view .LVU201
 988              	@ src/main.c:145: 			LCDBitmap* frame = getFrame(pd, x, y);
 145:src/main.c    ****       pd->graphics->drawScaledBitmap( frame, X_OFFSET+(x*32), Y_OFFSET+(y*32), 4, 4 );
 989              		.loc 1 145 23 is_stmt 0 discriminator 3 view .LVU202
 990 0010 2246     		mov	r2, r4	@, y
 991 0012 3146     		mov	r1, r6	@, x
 992 0014 2846     		mov	r0, r5	@, pd
 993 0016 FFF7FEFF 		bl	getFrame		@
 994              	.LVL47:
 146:src/main.c    **** 		}
ARM GAS  /var/folders/ph/03bwgzvd4m303v9bqlrmh_yh0000gn/T//ccqgl99K.s 			page 25


 995              		.loc 1 146 7 is_stmt 1 discriminator 3 view .LVU203
 996 001a F1EE000A 		vmov.f32	s1, #4.0e+0	@,
 997 001e 6201     		lsls	r2, r4, #5	@ tmp124, y,
 998              	@ src/main.c:146:       pd->graphics->drawScaledBitmap( frame, X_OFFSET+(x*32), Y_OFFSET+(y*32), 4,
 146:src/main.c    **** 		}
 999              		.loc 1 146 19 is_stmt 0 discriminator 3 view .LVU204
 1000 0020 AB68     		ldr	r3, [r5, #8]	@ pd_14(D)->graphics, pd_14(D)->graphics
 1001              	.LBE19:
 1002              	@ src/main.c:143: 		for (y=0;y<MAZE_Y;y++)
 143:src/main.c    **** 		{
 1003              		.loc 1 143 22 discriminator 3 view .LVU205
 1004 0022 0134     		adds	r4, r4, #1	@ y, y,
 1005              	.LVL48:
 1006              	.LBB20:
 1007              	@ src/main.c:146:       pd->graphics->drawScaledBitmap( frame, X_OFFSET+(x*32), Y_OFFSET+(y*32), 4,
 146:src/main.c    **** 		}
 1008              		.loc 1 146 7 discriminator 3 view .LVU206
 1009 0024 3946     		mov	r1, r7	@, ivtmp.62
 1010 0026 B0EE600A 		vmov.f32	s0, s1	@,
 1011 002a 0832     		adds	r2, r2, #8	@, tmp124,
 1012 002c 5B6D     		ldr	r3, [r3, #84]	@ _1->drawScaledBitmap, _1->drawScaledBitmap
 1013 002e 9847     		blx	r3		@ _1->drawScaledBitmap
 1014              	.LVL49:
 146:src/main.c    **** 		}
 1015              		.loc 1 146 7 discriminator 3 view .LVU207
 1016              	.LBE20:
 143:src/main.c    **** 		{
 1017              		.loc 1 143 21 is_stmt 1 discriminator 3 view .LVU208
 143:src/main.c    **** 		{
 1018              		.loc 1 143 12 discriminator 3 view .LVU209
 1019              	@ src/main.c:143: 		for (y=0;y<MAZE_Y;y++)
 143:src/main.c    **** 		{
 1020              		.loc 1 143 3 is_stmt 0 discriminator 3 view .LVU210
 1021 0030 072C     		cmp	r4, #7	@ y,
 1022 0032 EDD1     		bne	.L55		@,
 141:src/main.c    **** 	{
 1023              		.loc 1 141 20 is_stmt 1 discriminator 2 view .LVU211
 1024              	@ src/main.c:141: 	for (x=0;x<MAZE_X;x++)
 141:src/main.c    **** 	{
 1025              		.loc 1 141 21 is_stmt 0 discriminator 2 view .LVU212
 1026 0034 0136     		adds	r6, r6, #1	@ x, x,
 1027              	.LVL50:
 141:src/main.c    **** 	{
 1028              		.loc 1 141 11 is_stmt 1 discriminator 2 view .LVU213
 1029 0036 2037     		adds	r7, r7, #32	@ ivtmp.62, ivtmp.62,
 1030              	@ src/main.c:141: 	for (x=0;x<MAZE_X;x++)
 141:src/main.c    **** 	{
 1031              		.loc 1 141 2 is_stmt 0 discriminator 2 view .LVU214
 1032 0038 0C2E     		cmp	r6, #12	@ x,
 1033 003a E8D1     		bne	.L54		@,
 1034              	@ src/main.c:151: }
 151:src/main.c    **** 
 1035              		.loc 1 151 1 view .LVU215
 1036 003c F8BD     		pop	{r3, r4, r5, r6, r7, pc}	@
 1037              	.LVL51:
 1038              	.L60:
 151:src/main.c    **** 
ARM GAS  /var/folders/ph/03bwgzvd4m303v9bqlrmh_yh0000gn/T//ccqgl99K.s 			page 26


 1039              		.loc 1 151 1 view .LVU216
 1040 003e 00BF     		.align	2
 1041              	.L59:
 1042 0040 00000000 		.word	.LANCHOR0
 1043              		.cfi_endproc
 1044              	.LFE20:
 1045              		.size	drawMaze, .-drawMaze
 1046              		.section	.text.update,"ax",%progbits
 1047              		.align	1
 1048              		.p2align 4,,15
 1049              		.syntax unified
 1050              		.thumb
 1051              		.thumb_func
 1052              		.fpu fpv5-sp-d16
 1053              		.type	update, %function
 1054              	update:
 1055              	.LVL52:
 1056              	.LFB17:
  93:src/main.c    **** 	PlaydateAPI* pd = userdata;
 1057              		.loc 1 93 1 is_stmt 1 view -0
 1058              		.cfi_startproc
 1059              		@ args = 0, pretend = 0, frame = 0
 1060              		@ frame_needed = 0, uses_anonymous_args = 0
  94:src/main.c    **** 	pd->graphics->clear(kColorWhite);
 1061              		.loc 1 94 2 view .LVU218
 1062              	@ src/main.c:93: {
  93:src/main.c    **** 	PlaydateAPI* pd = userdata;
 1063              		.loc 1 93 1 is_stmt 0 view .LVU219
 1064 0000 10B5     		push	{r4, lr}	@
 1065              	.LCFI20:
 1066              		.cfi_def_cfa_offset 8
 1067              		.cfi_offset 4, -8
 1068              		.cfi_offset 14, -4
 1069              	@ src/main.c:93: {
  93:src/main.c    **** 	PlaydateAPI* pd = userdata;
 1070              		.loc 1 93 1 view .LVU220
 1071 0002 0446     		mov	r4, r0	@ tmp117, userdata
 1072              	@ src/main.c:95: 	pd->graphics->clear(kColorWhite);
  95:src/main.c    ****   ProcessInput(pd);
 1073              		.loc 1 95 2 view .LVU221
 1074 0004 0120     		movs	r0, #1	@,
 1075              	.LVL53:
  95:src/main.c    ****   ProcessInput(pd);
 1076              		.loc 1 95 2 is_stmt 1 view .LVU222
 1077              	@ src/main.c:95: 	pd->graphics->clear(kColorWhite);
  95:src/main.c    ****   ProcessInput(pd);
 1078              		.loc 1 95 14 is_stmt 0 view .LVU223
 1079 0006 A368     		ldr	r3, [r4, #8]	@ MEM[(struct PlaydateAPI *)userdata_3(D)].graphics, MEM[(struct PlaydateAPI *)us
 1080              	@ src/main.c:95: 	pd->graphics->clear(kColorWhite);
  95:src/main.c    ****   ProcessInput(pd);
 1081              		.loc 1 95 2 view .LVU224
 1082 0008 5B68     		ldr	r3, [r3, #4]	@ _1->clear, _1->clear
 1083 000a 9847     		blx	r3		@ _1->clear
 1084              	.LVL54:
  96:src/main.c    ****   drawMaze(pd);
 1085              		.loc 1 96 3 is_stmt 1 view .LVU225
 1086 000c 2046     		mov	r0, r4	@, userdata
ARM GAS  /var/folders/ph/03bwgzvd4m303v9bqlrmh_yh0000gn/T//ccqgl99K.s 			page 27


 1087 000e FFF7FEFF 		bl	ProcessInput		@
 1088              	.LVL55:
  97:src/main.c    **** 	drawPlayer(pd);
 1089              		.loc 1 97 3 view .LVU226
 1090 0012 2046     		mov	r0, r4	@, userdata
 1091 0014 FFF7FEFF 		bl	drawMaze		@
 1092              	.LVL56:
  98:src/main.c    **** 
 1093              		.loc 1 98 2 view .LVU227
 1094 0018 2046     		mov	r0, r4	@, userdata
 1095 001a FFF7FEFF 		bl	drawPlayer		@
 1096              	.LVL57:
 100:src/main.c    **** }
 1097              		.loc 1 100 2 view .LVU228
 1098              	@ src/main.c:101: }
 101:src/main.c    **** 
 1099              		.loc 1 101 1 is_stmt 0 view .LVU229
 1100 001e 0120     		movs	r0, #1	@,
 1101 0020 10BD     		pop	{r4, pc}	@
 101:src/main.c    **** 
 1102              		.loc 1 101 1 view .LVU230
 1103              		.cfi_endproc
 1104              	.LFE17:
 1105              		.size	update, .-update
 1106 0022 00BF     		.section	.text.build_maze,"ax",%progbits
 1107              		.align	1
 1108              		.p2align 4,,15
 1109              		.global	build_maze
 1110              		.syntax unified
 1111              		.thumb
 1112              		.thumb_func
 1113              		.fpu fpv5-sp-d16
 1114              		.type	build_maze, %function
 1115              	build_maze:
 1116              	.LVL58:
 1117              	.LFB22:
 166:src/main.c    **** 	for(int i=0;i<MAZE_LINEAR;i++)
 1118              		.loc 1 166 1 is_stmt 1 view -0
 1119              		.cfi_startproc
 1120              		@ args = 0, pretend = 0, frame = 0
 1121              		@ frame_needed = 0, uses_anonymous_args = 0
 167:src/main.c    **** 	{	
 1122              		.loc 1 167 2 view .LVU232
 1123              	.LBB21:
 167:src/main.c    **** 	{	
 1124              		.loc 1 167 6 view .LVU233
 167:src/main.c    **** 	{	
 1125              		.loc 1 167 14 view .LVU234
 1126              	.LBE21:
 1127              	@ src/main.c:166: {
 166:src/main.c    **** 	for(int i=0;i<MAZE_LINEAR;i++)
 1128              		.loc 1 166 1 is_stmt 0 view .LVU235
 1129 0000 70B5     		push	{r4, r5, r6, lr}	@
 1130              	.LCFI21:
 1131              		.cfi_def_cfa_offset 16
 1132              		.cfi_offset 4, -16
 1133              		.cfi_offset 5, -12
ARM GAS  /var/folders/ph/03bwgzvd4m303v9bqlrmh_yh0000gn/T//ccqgl99K.s 			page 28


 1134              		.cfi_offset 6, -8
 1135              		.cfi_offset 14, -4
 1136 0002 0B4E     		ldr	r6, .L67	@ ivtmp.75,
 1137              	.LBB22:
 1138              	@ src/main.c:169: 	  GAMEDATA.maze[i] = rand() % 14;
 1139              		.loc 1 169 30 view .LVU236
 1140 0004 0B4D     		ldr	r5, .L67+4	@ tmp121,
 1141 0006 06F5A874 		add	r4, r6, #336	@ _18, ivtmp.75,
 1142              	.LVL59:
 1143              	.L64:
 1144              		.loc 1 169 4 is_stmt 1 discriminator 3 view .LVU237
 1145              	@ src/main.c:169: 	  GAMEDATA.maze[i] = rand() % 14;
 1146              		.loc 1 169 23 is_stmt 0 discriminator 3 view .LVU238
 1147 000a FFF7FEFF 		bl	rand		@
 1148              	.LVL60:
 1149              	@ src/main.c:169: 	  GAMEDATA.maze[i] = rand() % 14;
 1150              		.loc 1 169 30 discriminator 3 view .LVU239
 1151 000e 85FB0032 		smull	r3, r2, r5, r0	@ tmp133, tmp120, tmp121, _1
 1152 0012 C317     		asrs	r3, r0, #31	@ tmp124, _1,
 1153 0014 0244     		add	r2, r2, r0	@ tmp122, _1
 1154 0016 C3EBE203 		rsb	r3, r3, r2, asr #3	@ tmp125, tmp124, tmp122,
 1155 001a C3EBC303 		rsb	r3, r3, r3, lsl #3	@ tmp128, tmp125, tmp125,
 1156 001e A0EB4300 		sub	r0, r0, r3, lsl #1	@ tmp130, _1, tmp128,
 1157              	@ src/main.c:169: 	  GAMEDATA.maze[i] = rand() % 14;
 1158              		.loc 1 169 21 discriminator 3 view .LVU240
 1159 0022 46F8040F 		str	r0, [r6, #4]!	@ tmp130, MEM[base: _16, offset: 0B]
 167:src/main.c    **** 	{	
 1160              		.loc 1 167 28 is_stmt 1 discriminator 3 view .LVU241
 167:src/main.c    **** 	{	
 1161              		.loc 1 167 14 discriminator 3 view .LVU242
 1162              	@ src/main.c:167: 	for(int i=0;i<MAZE_LINEAR;i++)
 167:src/main.c    **** 	{	
 1163              		.loc 1 167 2 is_stmt 0 discriminator 3 view .LVU243
 1164 0026 A642     		cmp	r6, r4	@ ivtmp.75, _18
 1165 0028 EFD1     		bne	.L64		@,
 1166              	.LBE22:
 170:src/main.c    **** 	}
 171:src/main.c    **** 	return 0;
 1167              		.loc 1 171 2 is_stmt 1 view .LVU244
 1168              	@ src/main.c:172: }
 172:src/main.c    **** }...
 1169              		.loc 1 172 1 is_stmt 0 view .LVU245
 1170 002a 0020     		movs	r0, #0	@,
 1171 002c 70BD     		pop	{r4, r5, r6, pc}	@
 1172              	.L68:
 1173 002e 00BF     		.align	2
 1174              	.L67:
 1175 0030 14000000 		.word	.LANCHOR0+20
 1176 0034 93244992 		.word	-1840700269
 1177              		.cfi_endproc
 1178              	.LFE22:
 1179              		.size	build_maze, .-build_maze
 1180              		.global	font
 1181              		.global	fontpath
 1182              		.section	.rodata.str1.4,"aMS",%progbits,1
 1183              		.align	2
 1184              	.LC9:
ARM GAS  /var/folders/ph/03bwgzvd4m303v9bqlrmh_yh0000gn/T//ccqgl99K.s 			page 29


 1185 0000 2F537973 		.ascii	"/System/Fonts/Asheville-Sans-14-Bold.pft\000"
 1185      74656D2F 
 1185      466F6E74 
 1185      732F4173 
 1185      68657669 
 1186              		.global	GAMEDATA
 1187              		.global	Y_OFFSET
 1188              		.global	X_OFFSET
 1189              		.global	MAZE_LINEAR
 1190              		.global	MAZE_Y
 1191              		.global	MAZE_X
 1192              		.section	.bss.GAMEDATA,"aw",%nobits
 1193              		.align	3
 1194              		.set	.LANCHOR0,. + 0
 1195              		.type	GAMEDATA, %object
 1196              		.size	GAMEDATA, 376
 1197              	GAMEDATA:
 1198 0000 00000000 		.space	376
 1198      00000000 
 1198      00000000 
 1198      00000000 
 1198      00000000 
 1199              		.section	.bss.font,"aw",%nobits
 1200              		.align	2
 1201              		.set	.LANCHOR2,. + 0
 1202              		.type	font, %object
 1203              		.size	font, 4
 1204              	font:
 1205 0000 00000000 		.space	4
 1206              		.section	.data.fontpath,"aw"
 1207              		.align	2
 1208              		.set	.LANCHOR1,. + 0
 1209              		.type	fontpath, %object
 1210              		.size	fontpath, 4
 1211              	fontpath:
 1212 0000 00000000 		.word	.LC9
 1213              		.section	.rodata.MAZE_LINEAR,"a"
 1214              		.align	2
 1215              		.type	MAZE_LINEAR, %object
 1216              		.size	MAZE_LINEAR, 4
 1217              	MAZE_LINEAR:
 1218 0000 54000000 		.word	84
 1219              		.section	.rodata.MAZE_X,"a"
 1220              		.align	2
 1221              		.type	MAZE_X, %object
 1222              		.size	MAZE_X, 4
 1223              	MAZE_X:
 1224 0000 0C000000 		.word	12
 1225              		.section	.rodata.MAZE_Y,"a"
 1226              		.align	2
 1227              		.type	MAZE_Y, %object
 1228              		.size	MAZE_Y, 4
 1229              	MAZE_Y:
 1230 0000 07000000 		.word	7
 1231              		.section	.rodata.X_OFFSET,"a"
 1232              		.align	2
 1233              		.type	X_OFFSET, %object
ARM GAS  /var/folders/ph/03bwgzvd4m303v9bqlrmh_yh0000gn/T//ccqgl99K.s 			page 30


 1234              		.size	X_OFFSET, 4
 1235              	X_OFFSET:
 1236 0000 07000000 		.word	7
 1237              		.section	.rodata.Y_OFFSET,"a"
 1238              		.align	2
 1239              		.type	Y_OFFSET, %object
 1240              		.size	Y_OFFSET, 4
 1241              	Y_OFFSET:
 1242 0000 08000000 		.word	8
 1243              		.text
 1244              	.Letext0:
 1245              		.file 2 "/usr/local/playdate/gcc-arm-none-eabi-9-2019-q4-major/arm-none-eabi/include/machine/_defa
 1246              		.file 3 "/usr/local/playdate/gcc-arm-none-eabi-9-2019-q4-major/lib/gcc/arm-none-eabi/9.2.1/include
 1247              		.file 4 "/usr/local/playdate/gcc-arm-none-eabi-9-2019-q4-major/lib/gcc/arm-none-eabi/9.2.1/include
 1248              		.file 5 "/usr/local/playdate/gcc-arm-none-eabi-9-2019-q4-major/arm-none-eabi/include/stdio.h"
 1249              		.file 6 "/usr/local/playdate/gcc-arm-none-eabi-9-2019-q4-major/arm-none-eabi/include/sys/lock.h"
 1250              		.file 7 "/usr/local/playdate/gcc-arm-none-eabi-9-2019-q4-major/arm-none-eabi/include/sys/_types.h"
 1251              		.file 8 "/usr/local/playdate/gcc-arm-none-eabi-9-2019-q4-major/arm-none-eabi/include/sys/reent.h"
 1252              		.file 9 "/usr/local/playdate/gcc-arm-none-eabi-9-2019-q4-major/arm-none-eabi/include/sys/_stdint.h
 1253              		.file 10 "/usr/local/playdate/gcc-arm-none-eabi-9-2019-q4-major/arm-none-eabi/include/stdlib.h"
 1254              		.file 11 "/usr/local/playdate/gcc-arm-none-eabi-9-2019-q4-major/arm-none-eabi/include/time.h"
 1255              		.file 12 "/Users/mjw/Developer/PlaydateSDK/C_API/pd_api/pd_api_gfx.h"
 1256              		.file 13 "/Users/mjw/Developer/PlaydateSDK/C_API/pd_api/pd_api_sys.h"
 1257              		.file 14 "/Users/mjw/Developer/PlaydateSDK/C_API/pd_api/pd_api_lua.h"
 1258              		.file 15 "/Users/mjw/Developer/PlaydateSDK/C_API/pd_api/pd_api_json.h"
 1259              		.file 16 "/Users/mjw/Developer/PlaydateSDK/C_API/pd_api/pd_api_file.h"
 1260              		.file 17 "/Users/mjw/Developer/PlaydateSDK/C_API/pd_api/pd_api_sprite.h"
 1261              		.file 18 "/Users/mjw/Developer/PlaydateSDK/C_API/pd_api/pd_api_sound.h"
 1262              		.file 19 "/usr/local/playdate/gcc-arm-none-eabi-9-2019-q4-major/arm-none-eabi/include/math.h"
 1263              		.file 20 "/Users/mjw/Developer/PlaydateSDK/C_API/pd_api/pd_api_display.h"
 1264              		.file 21 "/Users/mjw/Developer/PlaydateSDK/C_API/pd_api/pd_api_scoreboards.h"
 1265              		.file 22 "/Users/mjw/Developer/PlaydateSDK/C_API/pd_api.h"
 1266              		.file 23 "<built-in>"